
boilerplate.o:     file format elf32-tradlittlemips


Disassembly of section .text:

80000000 <__start>:
80000000:	3c1d8080 	lui	$29,0x8080
80000004:	04110260 	bgezal	$0,80000988 <bootloader>
80000008:	00000000 	sll	$0,$0,0x0

8000000c <boot>:
8000000c:	3c158000 	lui	$21,0x8000
80000010:	02a00008 	jr	$21
80000014:	00000000 	sll	$0,$0,0x0
	...

80000380 <__halt>:
80000380:	3c1d8080 	lui	$29,0x8080
80000384:	40047000 	mfc0	$4,c0_epc
80000388:	0411018e 	bgezal	$0,800009c4 <halt>
8000038c:	00000000 	sll	$0,$0,0x0

80000390 <end>:
80000390:	1000ffff 	beqz	$0,80000390 <end>
80000394:	00000000 	sll	$0,$0,0x0

80000398 <Init>:
80000398:	27bdfff8 	addiu	$29,$29,-8
8000039c:	afbe0004 	sw	$30,4($29)
800003a0:	03a0f025 	or	$30,$29,$0
800003a4:	afc40008 	sw	$4,8($30)
800003a8:	00001025 	or	$2,$0,$0
800003ac:	03c0e825 	or	$29,$30,$0
800003b0:	8fbe0004 	lw	$30,4($29)
800003b4:	27bd0008 	addiu	$29,$29,8
800003b8:	03e00008 	jr	$31
800003bc:	00000000 	sll	$0,$0,0x0

800003c0 <GetTicks>:
800003c0:	27bdfff8 	addiu	$29,$29,-8
800003c4:	afbe0004 	sw	$30,4($29)
800003c8:	03a0f025 	or	$30,$29,$0
800003cc:	00001025 	or	$2,$0,$0
800003d0:	00001825 	or	$3,$0,$0
800003d4:	03c0e825 	or	$29,$30,$0
800003d8:	8fbe0004 	lw	$30,4($29)
800003dc:	27bd0008 	addiu	$29,$29,8
800003e0:	03e00008 	jr	$31
800003e4:	00000000 	sll	$0,$0,0x0

800003e8 <ReceiveIPPacket>:
800003e8:	27bdffd0 	addiu	$29,$29,-48
800003ec:	afbf002c 	sw	$31,44($29)
800003f0:	afbe0028 	sw	$30,40($29)
800003f4:	afb10024 	sw	$17,36($29)
800003f8:	afb00020 	sw	$16,32($29)
800003fc:	03a0f025 	or	$30,$29,$0
80000400:	afc40030 	sw	$4,48($30)
80000404:	afc50034 	sw	$5,52($30)
80000408:	afc60038 	sw	$6,56($30)
8000040c:	afc7003c 	sw	$7,60($30)
80000410:	3c02bfd0 	lui	$2,0xbfd0
80000414:	34420400 	ori	$2,$2,0x400
80000418:	afc20010 	sw	$2,16($30)
8000041c:	0c0000f0 	jal	800003c0 <GetTicks>
80000420:	00000000 	sll	$0,$0,0x0
80000424:	afc20018 	sw	$2,24($30)
80000428:	afc3001c 	sw	$3,28($30)
8000042c:	8fc30040 	lw	$3,64($30)
80000430:	2402ffff 	addiu	$2,$0,-1
80000434:	1462000d 	bne	$3,$2,8000046c <ReceiveIPPacket+0x84>
80000438:	00000000 	sll	$0,$0,0x0
8000043c:	8fc30044 	lw	$3,68($30)
80000440:	2402ffff 	addiu	$2,$0,-1
80000444:	14620009 	bne	$3,$2,8000046c <ReceiveIPPacket+0x84>
80000448:	00000000 	sll	$0,$0,0x0
8000044c:	8fc20040 	lw	$2,64($30)
80000450:	8fc30044 	lw	$3,68($30)
80000454:	000327c0 	sll	$4,$3,0x1f
80000458:	00028042 	srl	$16,$2,0x1
8000045c:	00908025 	or	$16,$4,$16
80000460:	00038842 	srl	$17,$3,0x1
80000464:	afd00040 	sw	$16,64($30)
80000468:	afd10044 	sw	$17,68($30)
8000046c:	0c0000f0 	jal	800003c0 <GetTicks>
80000470:	00000000 	sll	$0,$0,0x0
80000474:	00402025 	or	$4,$2,$0
80000478:	00602825 	or	$5,$3,$0
8000047c:	8fc60018 	lw	$6,24($30)
80000480:	8fc7001c 	lw	$7,28($30)
80000484:	00861023 	subu	$2,$4,$6
80000488:	0082402b 	sltu	$8,$4,$2
8000048c:	00a71823 	subu	$3,$5,$7
80000490:	00682023 	subu	$4,$3,$8
80000494:	00801825 	or	$3,$4,$0
80000498:	00402025 	or	$4,$2,$0
8000049c:	00602825 	or	$5,$3,$0
800004a0:	8fc20040 	lw	$2,64($30)
800004a4:	8fc30044 	lw	$3,68($30)
800004a8:	24070001 	addiu	$7,$0,1
800004ac:	00a3302b 	sltu	$6,$5,$3
800004b0:	14c00007 	bnez	$6,800004d0 <ReceiveIPPacket+0xe8>
800004b4:	00000000 	sll	$0,$0,0x0
800004b8:	00a03025 	or	$6,$5,$0
800004bc:	14660005 	bne	$3,$6,800004d4 <ReceiveIPPacket+0xec>
800004c0:	00000000 	sll	$0,$0,0x0
800004c4:	0082102b 	sltu	$2,$4,$2
800004c8:	10400002 	beqz	$2,800004d4 <ReceiveIPPacket+0xec>
800004cc:	00000000 	sll	$0,$0,0x0
800004d0:	00003825 	or	$7,$0,$0
800004d4:	30e200ff 	andi	$2,$7,0xff
800004d8:	10400004 	beqz	$2,800004ec <ReceiveIPPacket+0x104>
800004dc:	00000000 	sll	$0,$0,0x0
800004e0:	00001025 	or	$2,$0,$0
800004e4:	1000002f 	beqz	$0,800005a4 <ReceiveIPPacket+0x1bc>
800004e8:	00000000 	sll	$0,$0,0x0
800004ec:	8fc20010 	lw	$2,16($30)
800004f0:	8c430000 	lw	$3,0($2)
800004f4:	8fc20030 	lw	$2,48($30)
800004f8:	00621026 	xor	$2,$3,$2
800004fc:	0002102b 	sltu	$2,$0,$2
80000500:	304200ff 	andi	$2,$2,0xff
80000504:	14400003 	bnez	$2,80000514 <ReceiveIPPacket+0x12c>
80000508:	00000000 	sll	$0,$0,0x0
8000050c:	1000ffd7 	beqz	$0,8000046c <ReceiveIPPacket+0x84>
80000510:	00000000 	sll	$0,$0,0x0
80000514:	00000000 	sll	$0,$0,0x0
80000518:	8fc20030 	lw	$2,48($30)
8000051c:	24430001 	addiu	$3,$2,1
80000520:	afc30030 	sw	$3,48($30)
80000524:	000212c0 	sll	$2,$2,0xb
80000528:	00401825 	or	$3,$2,$0
8000052c:	3c028060 	lui	$2,0x8060
80000530:	34420004 	ori	$2,$2,0x4
80000534:	00621021 	addu	$2,$3,$2
80000538:	afc20034 	sw	$2,52($30)
8000053c:	8fc20034 	lw	$2,52($30)
80000540:	8c430000 	lw	$3,0($2)
80000544:	8fc20038 	lw	$2,56($30)
80000548:	ac430000 	sw	$3,0($2)
8000054c:	8fc20038 	lw	$2,56($30)
80000550:	24420004 	addiu	$2,$2,4
80000554:	8fc30034 	lw	$3,52($30)
80000558:	94630004 	lhu	$3,4($3)
8000055c:	a4430000 	sh	$3,0($2)
80000560:	8fc20034 	lw	$2,52($30)
80000564:	8c430006 	lw	$3,6($2)
80000568:	8fc2003c 	lw	$2,60($30)
8000056c:	ac430000 	sw	$3,0($2)
80000570:	8fc2003c 	lw	$2,60($30)
80000574:	24420004 	addiu	$2,$2,4
80000578:	8fc30034 	lw	$3,52($30)
8000057c:	9463000a 	lhu	$3,10($3)
80000580:	a4430000 	sh	$3,0($2)
80000584:	8fc20034 	lw	$2,52($30)
80000588:	2442000f 	addiu	$2,$2,15
8000058c:	90420000 	lbu	$2,0($2)
80000590:	2443ffff 	addiu	$3,$2,-1
80000594:	8fc20048 	lw	$2,72($30)
80000598:	ac430000 	sw	$3,0($2)
8000059c:	8fc20034 	lw	$2,52($30)
800005a0:	8c420000 	lw	$2,0($2)
800005a4:	03c0e825 	or	$29,$30,$0
800005a8:	8fbf002c 	lw	$31,44($29)
800005ac:	8fbe0028 	lw	$30,40($29)
800005b0:	8fb10024 	lw	$17,36($29)
800005b4:	8fb00020 	lw	$16,32($29)
800005b8:	27bd0030 	addiu	$29,$29,48
800005bc:	03e00008 	jr	$31
800005c0:	00000000 	sll	$0,$0,0x0

800005c4 <SendIPPacket>:
800005c4:	27bdfff0 	addiu	$29,$29,-16
800005c8:	afbe000c 	sw	$30,12($29)
800005cc:	03a0f025 	or	$30,$29,$0
800005d0:	afc40010 	sw	$4,16($30)
800005d4:	afc50014 	sw	$5,20($30)
800005d8:	afc60018 	sw	$6,24($30)
800005dc:	afc7001c 	sw	$7,28($30)
800005e0:	8fc20014 	lw	$2,20($30)
800005e4:	24420006 	addiu	$2,$2,6
800005e8:	8fc3001c 	lw	$3,28($30)
800005ec:	8c630000 	lw	$3,0($3)
800005f0:	ac430000 	sw	$3,0($2)
800005f4:	8c430000 	lw	$3,0($2)
800005f8:	8fc20014 	lw	$2,20($30)
800005fc:	ac430000 	sw	$3,0($2)
80000600:	8fc20014 	lw	$2,20($30)
80000604:	2442000a 	addiu	$2,$2,10
80000608:	8fc3001c 	lw	$3,28($30)
8000060c:	94630004 	lhu	$3,4($3)
80000610:	a4430000 	sh	$3,0($2)
80000614:	8fc30014 	lw	$3,20($30)
80000618:	24630004 	addiu	$3,$3,4
8000061c:	94420000 	lhu	$2,0($2)
80000620:	a4620000 	sh	$2,0($3)
80000624:	8fc20010 	lw	$2,16($30)
80000628:	8c420000 	lw	$2,0($2)
8000062c:	304300ff 	andi	$3,$2,0xff
80000630:	8fc20014 	lw	$2,20($30)
80000634:	2442000f 	addiu	$2,$2,15
80000638:	24630001 	addiu	$3,$3,1
8000063c:	306300ff 	andi	$3,$3,0xff
80000640:	a0430000 	sb	$3,0($2)
80000644:	8fc20014 	lw	$2,20($30)
80000648:	2442fffc 	addiu	$2,$2,-4
8000064c:	afc20014 	sw	$2,20($30)
80000650:	8fc30018 	lw	$3,24($30)
80000654:	8fc20014 	lw	$2,20($30)
80000658:	ac430000 	sw	$3,0($2)
8000065c:	3c02bfd0 	lui	$2,0xbfd0
80000660:	34420404 	ori	$2,$2,0x404
80000664:	afc20000 	sw	$2,0($30)
80000668:	3c02bfd0 	lui	$2,0xbfd0
8000066c:	34420404 	ori	$2,$2,0x404
80000670:	8c420000 	lw	$2,0($2)
80000674:	30420001 	andi	$2,$2,0x1
80000678:	10400003 	beqz	$2,80000688 <SendIPPacket+0xc4>
8000067c:	00000000 	sll	$0,$0,0x0
80000680:	1000fff9 	beqz	$0,80000668 <SendIPPacket+0xa4>
80000684:	00000000 	sll	$0,$0,0x0
80000688:	00000000 	sll	$0,$0,0x0
8000068c:	3c02bfd0 	lui	$2,0xbfd0
80000690:	34420408 	ori	$2,$2,0x408
80000694:	8fc30014 	lw	$3,20($30)
80000698:	ac430000 	sw	$3,0($2)
8000069c:	00000000 	sll	$0,$0,0x0
800006a0:	03c0e825 	or	$29,$30,$0
800006a4:	8fbe000c 	lw	$30,12($29)
800006a8:	27bd0010 	addiu	$29,$29,16
800006ac:	03e00008 	jr	$31
800006b0:	00000000 	sll	$0,$0,0x0

800006b4 <putc>:
800006b4:	27bdfff8 	addiu	$29,$29,-8
800006b8:	afbe0004 	sw	$30,4($29)
800006bc:	03a0f025 	or	$30,$29,$0
800006c0:	00801025 	or	$2,$4,$0
800006c4:	a3c20008 	sb	$2,8($30)
800006c8:	3c028000 	lui	$2,0x8000
800006cc:	8c4217e8 	lw	$2,6120($2)
800006d0:	8c420000 	lw	$2,0($2)
800006d4:	30420001 	andi	$2,$2,0x1
800006d8:	2c420001 	sltiu	$2,$2,1
800006dc:	304200ff 	andi	$2,$2,0xff
800006e0:	10400003 	beqz	$2,800006f0 <putc+0x3c>
800006e4:	00000000 	sll	$0,$0,0x0
800006e8:	1000fff7 	beqz	$0,800006c8 <putc+0x14>
800006ec:	00000000 	sll	$0,$0,0x0
800006f0:	3c028000 	lui	$2,0x8000
800006f4:	8c4217e4 	lw	$2,6116($2)
800006f8:	83c30008 	lb	$3,8($30)
800006fc:	ac430000 	sw	$3,0($2)
80000700:	00000000 	sll	$0,$0,0x0
80000704:	03c0e825 	or	$29,$30,$0
80000708:	8fbe0004 	lw	$30,4($29)
8000070c:	27bd0008 	addiu	$29,$29,8
80000710:	03e00008 	jr	$31
80000714:	00000000 	sll	$0,$0,0x0

80000718 <getc>:
80000718:	27bdfff8 	addiu	$29,$29,-8
8000071c:	afbe0004 	sw	$30,4($29)
80000720:	03a0f025 	or	$30,$29,$0
80000724:	3c028000 	lui	$2,0x8000
80000728:	8c4217e8 	lw	$2,6120($2)
8000072c:	8c420000 	lw	$2,0($2)
80000730:	30420002 	andi	$2,$2,0x2
80000734:	2c420001 	sltiu	$2,$2,1
80000738:	304200ff 	andi	$2,$2,0xff
8000073c:	10400003 	beqz	$2,8000074c <getc+0x34>
80000740:	00000000 	sll	$0,$0,0x0
80000744:	1000fff7 	beqz	$0,80000724 <getc+0xc>
80000748:	00000000 	sll	$0,$0,0x0
8000074c:	3c028000 	lui	$2,0x8000
80000750:	8c4217e0 	lw	$2,6112($2)
80000754:	8c420000 	lw	$2,0($2)
80000758:	304200ff 	andi	$2,$2,0xff
8000075c:	03c0e825 	or	$29,$30,$0
80000760:	8fbe0004 	lw	$30,4($29)
80000764:	27bd0008 	addiu	$29,$29,8
80000768:	03e00008 	jr	$31
8000076c:	00000000 	sll	$0,$0,0x0

80000770 <getlen>:
80000770:	27bdffe0 	addiu	$29,$29,-32
80000774:	afbf001c 	sw	$31,28($29)
80000778:	afbe0018 	sw	$30,24($29)
8000077c:	03a0f025 	or	$30,$29,$0
80000780:	afc00010 	sw	$0,16($30)
80000784:	0c0001c6 	jal	80000718 <getc>
80000788:	00000000 	sll	$0,$0,0x0
8000078c:	00401825 	or	$3,$2,$0
80000790:	8fc20010 	lw	$2,16($30)
80000794:	00431025 	or	$2,$2,$3
80000798:	afc20010 	sw	$2,16($30)
8000079c:	8fc20010 	lw	$2,16($30)
800007a0:	00021200 	sll	$2,$2,0x8
800007a4:	afc20010 	sw	$2,16($30)
800007a8:	0c0001c6 	jal	80000718 <getc>
800007ac:	00000000 	sll	$0,$0,0x0
800007b0:	00401825 	or	$3,$2,$0
800007b4:	8fc20010 	lw	$2,16($30)
800007b8:	00431025 	or	$2,$2,$3
800007bc:	afc20010 	sw	$2,16($30)
800007c0:	8fc20010 	lw	$2,16($30)
800007c4:	00021200 	sll	$2,$2,0x8
800007c8:	afc20010 	sw	$2,16($30)
800007cc:	0c0001c6 	jal	80000718 <getc>
800007d0:	00000000 	sll	$0,$0,0x0
800007d4:	00401825 	or	$3,$2,$0
800007d8:	8fc20010 	lw	$2,16($30)
800007dc:	00431025 	or	$2,$2,$3
800007e0:	afc20010 	sw	$2,16($30)
800007e4:	8fc20010 	lw	$2,16($30)
800007e8:	00021200 	sll	$2,$2,0x8
800007ec:	afc20010 	sw	$2,16($30)
800007f0:	0c0001c6 	jal	80000718 <getc>
800007f4:	00000000 	sll	$0,$0,0x0
800007f8:	00401825 	or	$3,$2,$0
800007fc:	8fc20010 	lw	$2,16($30)
80000800:	00431025 	or	$2,$2,$3
80000804:	afc20010 	sw	$2,16($30)
80000808:	8fc20010 	lw	$2,16($30)
8000080c:	03c0e825 	or	$29,$30,$0
80000810:	8fbf001c 	lw	$31,28($29)
80000814:	8fbe0018 	lw	$30,24($29)
80000818:	27bd0020 	addiu	$29,$29,32
8000081c:	03e00008 	jr	$31
80000820:	00000000 	sll	$0,$0,0x0

80000824 <puts>:
80000824:	27bdffe8 	addiu	$29,$29,-24
80000828:	afbf0014 	sw	$31,20($29)
8000082c:	afbe0010 	sw	$30,16($29)
80000830:	03a0f025 	or	$30,$29,$0
80000834:	afc40018 	sw	$4,24($30)
80000838:	8fc20018 	lw	$2,24($30)
8000083c:	80420000 	lb	$2,0($2)
80000840:	1040000a 	beqz	$2,8000086c <puts+0x48>
80000844:	00000000 	sll	$0,$0,0x0
80000848:	8fc20018 	lw	$2,24($30)
8000084c:	24430001 	addiu	$3,$2,1
80000850:	afc30018 	sw	$3,24($30)
80000854:	80420000 	lb	$2,0($2)
80000858:	00402025 	or	$4,$2,$0
8000085c:	0c0001ad 	jal	800006b4 <putc>
80000860:	00000000 	sll	$0,$0,0x0
80000864:	1000fff4 	beqz	$0,80000838 <puts+0x14>
80000868:	00000000 	sll	$0,$0,0x0
8000086c:	2404000a 	addiu	$4,$0,10
80000870:	0c0001ad 	jal	800006b4 <putc>
80000874:	00000000 	sll	$0,$0,0x0
80000878:	00000000 	sll	$0,$0,0x0
8000087c:	03c0e825 	or	$29,$30,$0
80000880:	8fbf0014 	lw	$31,20($29)
80000884:	8fbe0010 	lw	$30,16($29)
80000888:	27bd0018 	addiu	$29,$29,24
8000088c:	03e00008 	jr	$31
80000890:	00000000 	sll	$0,$0,0x0

80000894 <puthex>:
80000894:	27bdffe0 	addiu	$29,$29,-32
80000898:	afbf001c 	sw	$31,28($29)
8000089c:	afbe0018 	sw	$30,24($29)
800008a0:	03a0f025 	or	$30,$29,$0
800008a4:	afc40020 	sw	$4,32($30)
800008a8:	24020007 	addiu	$2,$0,7
800008ac:	afc20010 	sw	$2,16($30)
800008b0:	8fc20010 	lw	$2,16($30)
800008b4:	0440002d 	bltz	$2,8000096c <puthex+0xd8>
800008b8:	00000000 	sll	$0,$0,0x0
800008bc:	8fc20010 	lw	$2,16($30)
800008c0:	00021080 	sll	$2,$2,0x2
800008c4:	8fc30020 	lw	$3,32($30)
800008c8:	00431006 	srlv	$2,$3,$2
800008cc:	3042000f 	andi	$2,$2,0xf
800008d0:	afc20014 	sw	$2,20($30)
800008d4:	8fc20014 	lw	$2,20($30)
800008d8:	2842000b 	slti	$2,$2,11
800008dc:	1040000c 	beqz	$2,80000910 <puthex+0x7c>
800008e0:	00000000 	sll	$0,$0,0x0
800008e4:	8fc20014 	lw	$2,20($30)
800008e8:	304200ff 	andi	$2,$2,0xff
800008ec:	24420030 	addiu	$2,$2,48
800008f0:	304200ff 	andi	$2,$2,0xff
800008f4:	00021600 	sll	$2,$2,0x18
800008f8:	00021603 	sra	$2,$2,0x18
800008fc:	00402025 	or	$4,$2,$0
80000900:	0c0001ad 	jal	800006b4 <putc>
80000904:	00000000 	sll	$0,$0,0x0
80000908:	10000013 	beqz	$0,80000958 <puthex+0xc4>
8000090c:	00000000 	sll	$0,$0,0x0
80000910:	8fc20014 	lw	$2,20($30)
80000914:	28420010 	slti	$2,$2,16
80000918:	1040000c 	beqz	$2,8000094c <puthex+0xb8>
8000091c:	00000000 	sll	$0,$0,0x0
80000920:	8fc20014 	lw	$2,20($30)
80000924:	304200ff 	andi	$2,$2,0xff
80000928:	24420037 	addiu	$2,$2,55
8000092c:	304200ff 	andi	$2,$2,0xff
80000930:	00021600 	sll	$2,$2,0x18
80000934:	00021603 	sra	$2,$2,0x18
80000938:	00402025 	or	$4,$2,$0
8000093c:	0c0001ad 	jal	800006b4 <putc>
80000940:	00000000 	sll	$0,$0,0x0
80000944:	10000004 	beqz	$0,80000958 <puthex+0xc4>
80000948:	00000000 	sll	$0,$0,0x0
8000094c:	2404002e 	addiu	$4,$0,46
80000950:	0c0001ad 	jal	800006b4 <putc>
80000954:	00000000 	sll	$0,$0,0x0
80000958:	8fc20010 	lw	$2,16($30)
8000095c:	2442ffff 	addiu	$2,$2,-1
80000960:	afc20010 	sw	$2,16($30)
80000964:	1000ffd2 	beqz	$0,800008b0 <puthex+0x1c>
80000968:	00000000 	sll	$0,$0,0x0
8000096c:	00000000 	sll	$0,$0,0x0
80000970:	03c0e825 	or	$29,$30,$0
80000974:	8fbf001c 	lw	$31,28($29)
80000978:	8fbe0018 	lw	$30,24($29)
8000097c:	27bd0020 	addiu	$29,$29,32
80000980:	03e00008 	jr	$31
80000984:	00000000 	sll	$0,$0,0x0

80000988 <bootloader>:
80000988:	27bdffe8 	addiu	$29,$29,-24
8000098c:	afbf0014 	sw	$31,20($29)
80000990:	afbe0010 	sw	$30,16($29)
80000994:	03a0f025 	or	$30,$29,$0
80000998:	3c028000 	lui	$2,0x8000
8000099c:	24441350 	addiu	$4,$2,4944
800009a0:	0c000209 	jal	80000824 <puts>
800009a4:	00000000 	sll	$0,$0,0x0
800009a8:	00000000 	sll	$0,$0,0x0
800009ac:	03c0e825 	or	$29,$30,$0
800009b0:	8fbf0014 	lw	$31,20($29)
800009b4:	8fbe0010 	lw	$30,16($29)
800009b8:	27bd0018 	addiu	$29,$29,24
800009bc:	03e00008 	jr	$31
800009c0:	00000000 	sll	$0,$0,0x0

800009c4 <halt>:
800009c4:	27bdffe8 	addiu	$29,$29,-24
800009c8:	afbf0014 	sw	$31,20($29)
800009cc:	afbe0010 	sw	$30,16($29)
800009d0:	03a0f025 	or	$30,$29,$0
800009d4:	afc40018 	sw	$4,24($30)
800009d8:	3c028000 	lui	$2,0x8000
800009dc:	24441354 	addiu	$4,$2,4948
800009e0:	0c000209 	jal	80000824 <puts>
800009e4:	00000000 	sll	$0,$0,0x0
800009e8:	8fc40018 	lw	$4,24($30)
800009ec:	0c000225 	jal	80000894 <puthex>
800009f0:	00000000 	sll	$0,$0,0x0
800009f4:	00000000 	sll	$0,$0,0x0
800009f8:	03c0e825 	or	$29,$30,$0
800009fc:	8fbf0014 	lw	$31,20($29)
80000a00:	8fbe0010 	lw	$30,16($29)
80000a04:	27bd0018 	addiu	$29,$29,24
80000a08:	03e00008 	jr	$31
80000a0c:	00000000 	sll	$0,$0,0x0

80000a10 <_Z7getDataPKhm>:
80000a10:	27bdfff8 	addiu	$29,$29,-8
80000a14:	afbe0004 	sw	$30,4($29)
80000a18:	03a0f025 	or	$30,$29,$0
80000a1c:	afc40008 	sw	$4,8($30)
80000a20:	afc5000c 	sw	$5,12($30)
80000a24:	8fc30008 	lw	$3,8($30)
80000a28:	8fc2000c 	lw	$2,12($30)
80000a2c:	00621021 	addu	$2,$3,$2
80000a30:	90420000 	lbu	$2,0($2)
80000a34:	00021200 	sll	$2,$2,0x8
80000a38:	8fc3000c 	lw	$3,12($30)
80000a3c:	24630001 	addiu	$3,$3,1
80000a40:	8fc40008 	lw	$4,8($30)
80000a44:	00831821 	addu	$3,$4,$3
80000a48:	90630000 	lbu	$3,0($3)
80000a4c:	00431025 	or	$2,$2,$3
80000a50:	03c0e825 	or	$29,$30,$0
80000a54:	8fbe0004 	lw	$30,4($29)
80000a58:	27bd0008 	addiu	$29,$29,8
80000a5c:	03e00008 	jr	$31
80000a60:	00000000 	sll	$0,$0,0x0

80000a64 <_Z9writeDataPhmi>:
80000a64:	27bdfff8 	addiu	$29,$29,-8
80000a68:	afbe0004 	sw	$30,4($29)
80000a6c:	03a0f025 	or	$30,$29,$0
80000a70:	afc40008 	sw	$4,8($30)
80000a74:	afc5000c 	sw	$5,12($30)
80000a78:	afc60010 	sw	$6,16($30)
80000a7c:	8fc20010 	lw	$2,16($30)
80000a80:	00022203 	sra	$4,$2,0x8
80000a84:	8fc30008 	lw	$3,8($30)
80000a88:	8fc2000c 	lw	$2,12($30)
80000a8c:	00621021 	addu	$2,$3,$2
80000a90:	308300ff 	andi	$3,$4,0xff
80000a94:	a0430000 	sb	$3,0($2)
80000a98:	8fc2000c 	lw	$2,12($30)
80000a9c:	24420001 	addiu	$2,$2,1
80000aa0:	8fc30008 	lw	$3,8($30)
80000aa4:	00621021 	addu	$2,$3,$2
80000aa8:	8fc30010 	lw	$3,16($30)
80000aac:	306300ff 	andi	$3,$3,0xff
80000ab0:	a0430000 	sb	$3,0($2)
80000ab4:	00000000 	sll	$0,$0,0x0
80000ab8:	03c0e825 	or	$29,$30,$0
80000abc:	8fbe0004 	lw	$30,4($29)
80000ac0:	27bd0008 	addiu	$29,$29,8
80000ac4:	03e00008 	jr	$31
80000ac8:	00000000 	sll	$0,$0,0x0

80000acc <_Z7reverseh>:
80000acc:	27bdfff8 	addiu	$29,$29,-8
80000ad0:	afbe0004 	sw	$30,4($29)
80000ad4:	03a0f025 	or	$30,$29,$0
80000ad8:	00801025 	or	$2,$4,$0
80000adc:	a3c20008 	sb	$2,8($30)
80000ae0:	93c20008 	lbu	$2,8($30)
80000ae4:	00021102 	srl	$2,$2,0x4
80000ae8:	304200ff 	andi	$2,$2,0xff
80000aec:	00021e00 	sll	$3,$2,0x18
80000af0:	00031e03 	sra	$3,$3,0x18
80000af4:	93c20008 	lbu	$2,8($30)
80000af8:	00021100 	sll	$2,$2,0x4
80000afc:	00021600 	sll	$2,$2,0x18
80000b00:	00021603 	sra	$2,$2,0x18
80000b04:	00621025 	or	$2,$3,$2
80000b08:	00021600 	sll	$2,$2,0x18
80000b0c:	00021603 	sra	$2,$2,0x18
80000b10:	a3c20008 	sb	$2,8($30)
80000b14:	93c20008 	lbu	$2,8($30)
80000b18:	00021083 	sra	$2,$2,0x2
80000b1c:	00021600 	sll	$2,$2,0x18
80000b20:	00021603 	sra	$2,$2,0x18
80000b24:	30420033 	andi	$2,$2,0x33
80000b28:	00021e00 	sll	$3,$2,0x18
80000b2c:	00031e03 	sra	$3,$3,0x18
80000b30:	93c20008 	lbu	$2,8($30)
80000b34:	00021080 	sll	$2,$2,0x2
80000b38:	00022600 	sll	$4,$2,0x18
80000b3c:	00042603 	sra	$4,$4,0x18
80000b40:	2402ffcc 	addiu	$2,$0,-52
80000b44:	00821024 	and	$2,$4,$2
80000b48:	00021600 	sll	$2,$2,0x18
80000b4c:	00021603 	sra	$2,$2,0x18
80000b50:	00621025 	or	$2,$3,$2
80000b54:	00021600 	sll	$2,$2,0x18
80000b58:	00021603 	sra	$2,$2,0x18
80000b5c:	a3c20008 	sb	$2,8($30)
80000b60:	93c20008 	lbu	$2,8($30)
80000b64:	00021043 	sra	$2,$2,0x1
80000b68:	00021600 	sll	$2,$2,0x18
80000b6c:	00021603 	sra	$2,$2,0x18
80000b70:	30420055 	andi	$2,$2,0x55
80000b74:	00021e00 	sll	$3,$2,0x18
80000b78:	00031e03 	sra	$3,$3,0x18
80000b7c:	93c20008 	lbu	$2,8($30)
80000b80:	00021040 	sll	$2,$2,0x1
80000b84:	00022600 	sll	$4,$2,0x18
80000b88:	00042603 	sra	$4,$4,0x18
80000b8c:	2402ffaa 	addiu	$2,$0,-86
80000b90:	00821024 	and	$2,$4,$2
80000b94:	00021600 	sll	$2,$2,0x18
80000b98:	00021603 	sra	$2,$2,0x18
80000b9c:	00621025 	or	$2,$3,$2
80000ba0:	00021600 	sll	$2,$2,0x18
80000ba4:	00021603 	sra	$2,$2,0x18
80000ba8:	a3c20008 	sb	$2,8($30)
80000bac:	93c20008 	lbu	$2,8($30)
80000bb0:	03c0e825 	or	$29,$30,$0
80000bb4:	8fbe0004 	lw	$30,4($29)
80000bb8:	27bd0008 	addiu	$29,$29,8
80000bbc:	03e00008 	jr	$31
80000bc0:	00000000 	sll	$0,$0,0x0

80000bc4 <_Z3outji>:
80000bc4:	27bdffe8 	addiu	$29,$29,-24
80000bc8:	afbf0014 	sw	$31,20($29)
80000bcc:	afbe0010 	sw	$30,16($29)
80000bd0:	03a0f025 	or	$30,$29,$0
80000bd4:	afc40018 	sw	$4,24($30)
80000bd8:	afc5001c 	sw	$5,28($30)
80000bdc:	8fc2001c 	lw	$2,28($30)
80000be0:	2443ffff 	addiu	$3,$2,-1
80000be4:	afc3001c 	sw	$3,28($30)
80000be8:	0002102b 	sltu	$2,$0,$2
80000bec:	304200ff 	andi	$2,$2,0xff
80000bf0:	10400010 	beqz	$2,80000c34 <_Z3outji+0x70>
80000bf4:	00000000 	sll	$0,$0,0x0
80000bf8:	8fc30018 	lw	$3,24($30)
80000bfc:	8fc2001c 	lw	$2,28($30)
80000c00:	00431006 	srlv	$2,$3,$2
80000c04:	304200ff 	andi	$2,$2,0xff
80000c08:	30420001 	andi	$2,$2,0x1
80000c0c:	304200ff 	andi	$2,$2,0xff
80000c10:	38420030 	xori	$2,$2,0x30
80000c14:	304200ff 	andi	$2,$2,0xff
80000c18:	00021600 	sll	$2,$2,0x18
80000c1c:	00021603 	sra	$2,$2,0x18
80000c20:	00402025 	or	$4,$2,$0
80000c24:	0c0003e8 	jal	80000fa0 <_Z7putcharc>
80000c28:	00000000 	sll	$0,$0,0x0
80000c2c:	1000ffeb 	beqz	$0,80000bdc <_Z3outji+0x18>
80000c30:	00000000 	sll	$0,$0,0x0
80000c34:	00000000 	sll	$0,$0,0x0
80000c38:	03c0e825 	or	$29,$30,$0
80000c3c:	8fbf0014 	lw	$31,20($29)
80000c40:	8fbe0010 	lw	$30,16($29)
80000c44:	27bd0018 	addiu	$29,$29,24
80000c48:	03e00008 	jr	$31
80000c4c:	00000000 	sll	$0,$0,0x0

80000c50 <_Z6outputj>:
80000c50:	27bdffe0 	addiu	$29,$29,-32
80000c54:	afbf001c 	sw	$31,28($29)
80000c58:	afbe0018 	sw	$30,24($29)
80000c5c:	03a0f025 	or	$30,$29,$0
80000c60:	afc40020 	sw	$4,32($30)
80000c64:	24020020 	addiu	$2,$0,32
80000c68:	afc20010 	sw	$2,16($30)
80000c6c:	8fc20010 	lw	$2,16($30)
80000c70:	2443ffff 	addiu	$3,$2,-1
80000c74:	afc30010 	sw	$3,16($30)
80000c78:	0002102b 	sltu	$2,$0,$2
80000c7c:	304200ff 	andi	$2,$2,0xff
80000c80:	10400010 	beqz	$2,80000cc4 <_Z6outputj+0x74>
80000c84:	00000000 	sll	$0,$0,0x0
80000c88:	8fc30020 	lw	$3,32($30)
80000c8c:	8fc20010 	lw	$2,16($30)
80000c90:	00431006 	srlv	$2,$3,$2
80000c94:	304200ff 	andi	$2,$2,0xff
80000c98:	30420001 	andi	$2,$2,0x1
80000c9c:	304200ff 	andi	$2,$2,0xff
80000ca0:	38420030 	xori	$2,$2,0x30
80000ca4:	304200ff 	andi	$2,$2,0xff
80000ca8:	00021600 	sll	$2,$2,0x18
80000cac:	00021603 	sra	$2,$2,0x18
80000cb0:	00402025 	or	$4,$2,$0
80000cb4:	0c0003e8 	jal	80000fa0 <_Z7putcharc>
80000cb8:	00000000 	sll	$0,$0,0x0
80000cbc:	1000ffeb 	beqz	$0,80000c6c <_Z6outputj+0x1c>
80000cc0:	00000000 	sll	$0,$0,0x0
80000cc4:	00000000 	sll	$0,$0,0x0
80000cc8:	03c0e825 	or	$29,$30,$0
80000ccc:	8fbf001c 	lw	$31,28($29)
80000cd0:	8fbe0018 	lw	$30,24($29)
80000cd4:	27bd0020 	addiu	$29,$29,32
80000cd8:	03e00008 	jr	$31
80000cdc:	00000000 	sll	$0,$0,0x0

80000ce0 <_Z4calcji>:
80000ce0:	27bdffe8 	addiu	$29,$29,-24
80000ce4:	afbf0014 	sw	$31,20($29)
80000ce8:	afbe0010 	sw	$30,16($29)
80000cec:	03a0f025 	or	$30,$29,$0
80000cf0:	afc40018 	sw	$4,24($30)
80000cf4:	afc5001c 	sw	$5,28($30)
80000cf8:	8fc40018 	lw	$4,24($30)
80000cfc:	0c0003a3 	jal	80000e8c <_Z5ntohlj>
80000d00:	00000000 	sll	$0,$0,0x0
80000d04:	00402025 	or	$4,$2,$0
80000d08:	24030020 	addiu	$3,$0,32
80000d0c:	8fc2001c 	lw	$2,28($30)
80000d10:	00621023 	subu	$2,$3,$2
80000d14:	00441806 	srlv	$3,$4,$2
80000d18:	24040020 	addiu	$4,$0,32
80000d1c:	8fc2001c 	lw	$2,28($30)
80000d20:	00821023 	subu	$2,$4,$2
80000d24:	00431004 	sllv	$2,$3,$2
80000d28:	00402025 	or	$4,$2,$0
80000d2c:	0c00038c 	jal	80000e30 <_Z5htonlj>
80000d30:	00000000 	sll	$0,$0,0x0
80000d34:	03c0e825 	or	$29,$30,$0
80000d38:	8fbf0014 	lw	$31,20($29)
80000d3c:	8fbe0010 	lw	$30,16($29)
80000d40:	27bd0018 	addiu	$29,$29,24
80000d44:	03e00008 	jr	$31
80000d48:	00000000 	sll	$0,$0,0x0

80000d4c <_Z10IPChecksumPh>:
80000d4c:	27bdffd8 	addiu	$29,$29,-40
80000d50:	afbf0024 	sw	$31,36($29)
80000d54:	afbe0020 	sw	$30,32($29)
80000d58:	03a0f025 	or	$30,$29,$0
80000d5c:	afc40028 	sw	$4,40($30)
80000d60:	8fc20028 	lw	$2,40($30)
80000d64:	90420000 	lbu	$2,0($2)
80000d68:	00021080 	sll	$2,$2,0x2
80000d6c:	3042003c 	andi	$2,$2,0x3c
80000d70:	afc20018 	sw	$2,24($30)
80000d74:	afc00010 	sw	$0,16($30)
80000d78:	afc00014 	sw	$0,20($30)
80000d7c:	8fc30014 	lw	$3,20($30)
80000d80:	8fc20018 	lw	$2,24($30)
80000d84:	0062102b 	sltu	$2,$3,$2
80000d88:	10400012 	beqz	$2,80000dd4 <_Z10IPChecksumPh+0x88>
80000d8c:	00000000 	sll	$0,$0,0x0
80000d90:	8fc30014 	lw	$3,20($30)
80000d94:	2402000a 	addiu	$2,$0,10
80000d98:	10620009 	beq	$3,$2,80000dc0 <_Z10IPChecksumPh+0x74>
80000d9c:	00000000 	sll	$0,$0,0x0
80000da0:	8fc50014 	lw	$5,20($30)
80000da4:	8fc40028 	lw	$4,40($30)
80000da8:	0c000284 	jal	80000a10 <_Z7getDataPKhm>
80000dac:	00000000 	sll	$0,$0,0x0
80000db0:	00401825 	or	$3,$2,$0
80000db4:	8fc20010 	lw	$2,16($30)
80000db8:	00431021 	addu	$2,$2,$3
80000dbc:	afc20010 	sw	$2,16($30)
80000dc0:	8fc20014 	lw	$2,20($30)
80000dc4:	24420002 	addiu	$2,$2,2
80000dc8:	afc20014 	sw	$2,20($30)
80000dcc:	1000ffeb 	beqz	$0,80000d7c <_Z10IPChecksumPh+0x30>
80000dd0:	00000000 	sll	$0,$0,0x0
80000dd4:	8fc30010 	lw	$3,16($30)
80000dd8:	3c020001 	lui	$2,0x1
80000ddc:	0062102b 	sltu	$2,$3,$2
80000de0:	14400009 	bnez	$2,80000e08 <_Z10IPChecksumPh+0xbc>
80000de4:	00000000 	sll	$0,$0,0x0
80000de8:	8fc20010 	lw	$2,16($30)
80000dec:	3043ffff 	andi	$3,$2,0xffff
80000df0:	8fc20010 	lw	$2,16($30)
80000df4:	00021402 	srl	$2,$2,0x10
80000df8:	00621021 	addu	$2,$3,$2
80000dfc:	afc20010 	sw	$2,16($30)
80000e00:	1000fff4 	beqz	$0,80000dd4 <_Z10IPChecksumPh+0x88>
80000e04:	00000000 	sll	$0,$0,0x0
80000e08:	8fc20010 	lw	$2,16($30)
80000e0c:	3042ffff 	andi	$2,$2,0xffff
80000e10:	00021027 	nor	$2,$0,$2
80000e14:	3042ffff 	andi	$2,$2,0xffff
80000e18:	03c0e825 	or	$29,$30,$0
80000e1c:	8fbf0024 	lw	$31,36($29)
80000e20:	8fbe0020 	lw	$30,32($29)
80000e24:	27bd0028 	addiu	$29,$29,40
80000e28:	03e00008 	jr	$31
80000e2c:	00000000 	sll	$0,$0,0x0

80000e30 <_Z5htonlj>:
80000e30:	27bdfff8 	addiu	$29,$29,-8
80000e34:	afbe0004 	sw	$30,4($29)
80000e38:	03a0f025 	or	$30,$29,$0
80000e3c:	afc40008 	sw	$4,8($30)
80000e40:	8fc20008 	lw	$2,8($30)
80000e44:	00021e02 	srl	$3,$2,0x18
80000e48:	8fc20008 	lw	$2,8($30)
80000e4c:	00021202 	srl	$2,$2,0x8
80000e50:	3042ff00 	andi	$2,$2,0xff00
80000e54:	00621825 	or	$3,$3,$2
80000e58:	8fc20008 	lw	$2,8($30)
80000e5c:	00022200 	sll	$4,$2,0x8
80000e60:	3c0200ff 	lui	$2,0xff
80000e64:	00821024 	and	$2,$4,$2
80000e68:	00621825 	or	$3,$3,$2
80000e6c:	8fc20008 	lw	$2,8($30)
80000e70:	00021600 	sll	$2,$2,0x18
80000e74:	00621025 	or	$2,$3,$2
80000e78:	03c0e825 	or	$29,$30,$0
80000e7c:	8fbe0004 	lw	$30,4($29)
80000e80:	27bd0008 	addiu	$29,$29,8
80000e84:	03e00008 	jr	$31
80000e88:	00000000 	sll	$0,$0,0x0

80000e8c <_Z5ntohlj>:
80000e8c:	27bdfff8 	addiu	$29,$29,-8
80000e90:	afbe0004 	sw	$30,4($29)
80000e94:	03a0f025 	or	$30,$29,$0
80000e98:	afc40008 	sw	$4,8($30)
80000e9c:	8fc20008 	lw	$2,8($30)
80000ea0:	00021e02 	srl	$3,$2,0x18
80000ea4:	8fc20008 	lw	$2,8($30)
80000ea8:	00021202 	srl	$2,$2,0x8
80000eac:	3042ff00 	andi	$2,$2,0xff00
80000eb0:	00621825 	or	$3,$3,$2
80000eb4:	8fc20008 	lw	$2,8($30)
80000eb8:	00022200 	sll	$4,$2,0x8
80000ebc:	3c0200ff 	lui	$2,0xff
80000ec0:	00821024 	and	$2,$4,$2
80000ec4:	00621825 	or	$3,$3,$2
80000ec8:	8fc20008 	lw	$2,8($30)
80000ecc:	00021600 	sll	$2,$2,0x18
80000ed0:	00621025 	or	$2,$3,$2
80000ed4:	03c0e825 	or	$29,$30,$0
80000ed8:	8fbe0004 	lw	$30,4($29)
80000edc:	27bd0008 	addiu	$29,$29,8
80000ee0:	03e00008 	jr	$31
80000ee4:	00000000 	sll	$0,$0,0x0

80000ee8 <_Z5htonst>:
80000ee8:	27bdfff8 	addiu	$29,$29,-8
80000eec:	afbe0004 	sw	$30,4($29)
80000ef0:	03a0f025 	or	$30,$29,$0
80000ef4:	00801025 	or	$2,$4,$0
80000ef8:	a7c20008 	sh	$2,8($30)
80000efc:	97c20008 	lhu	$2,8($30)
80000f00:	00021202 	srl	$2,$2,0x8
80000f04:	3042ffff 	andi	$2,$2,0xffff
80000f08:	00021c00 	sll	$3,$2,0x10
80000f0c:	00031c03 	sra	$3,$3,0x10
80000f10:	97c20008 	lhu	$2,8($30)
80000f14:	00021200 	sll	$2,$2,0x8
80000f18:	00021400 	sll	$2,$2,0x10
80000f1c:	00021403 	sra	$2,$2,0x10
80000f20:	00621025 	or	$2,$3,$2
80000f24:	00021400 	sll	$2,$2,0x10
80000f28:	00021403 	sra	$2,$2,0x10
80000f2c:	3042ffff 	andi	$2,$2,0xffff
80000f30:	03c0e825 	or	$29,$30,$0
80000f34:	8fbe0004 	lw	$30,4($29)
80000f38:	27bd0008 	addiu	$29,$29,8
80000f3c:	03e00008 	jr	$31
80000f40:	00000000 	sll	$0,$0,0x0

80000f44 <_Z5ntohst>:
80000f44:	27bdfff8 	addiu	$29,$29,-8
80000f48:	afbe0004 	sw	$30,4($29)
80000f4c:	03a0f025 	or	$30,$29,$0
80000f50:	00801025 	or	$2,$4,$0
80000f54:	a7c20008 	sh	$2,8($30)
80000f58:	97c20008 	lhu	$2,8($30)
80000f5c:	00021202 	srl	$2,$2,0x8
80000f60:	3042ffff 	andi	$2,$2,0xffff
80000f64:	00021c00 	sll	$3,$2,0x10
80000f68:	00031c03 	sra	$3,$3,0x10
80000f6c:	97c20008 	lhu	$2,8($30)
80000f70:	00021200 	sll	$2,$2,0x8
80000f74:	00021400 	sll	$2,$2,0x10
80000f78:	00021403 	sra	$2,$2,0x10
80000f7c:	00621025 	or	$2,$3,$2
80000f80:	00021400 	sll	$2,$2,0x10
80000f84:	00021403 	sra	$2,$2,0x10
80000f88:	3042ffff 	andi	$2,$2,0xffff
80000f8c:	03c0e825 	or	$29,$30,$0
80000f90:	8fbe0004 	lw	$30,4($29)
80000f94:	27bd0008 	addiu	$29,$29,8
80000f98:	03e00008 	jr	$31
80000f9c:	00000000 	sll	$0,$0,0x0

80000fa0 <_Z7putcharc>:
80000fa0:	27bdfff8 	addiu	$29,$29,-8
80000fa4:	afbe0004 	sw	$30,4($29)
80000fa8:	03a0f025 	or	$30,$29,$0
80000fac:	00801025 	or	$2,$4,$0
80000fb0:	a3c20008 	sb	$2,8($30)
80000fb4:	00000000 	sll	$0,$0,0x0
80000fb8:	03c0e825 	or	$29,$30,$0
80000fbc:	8fbe0004 	lw	$30,4($29)
80000fc0:	27bd0008 	addiu	$29,$29,8
80000fc4:	03e00008 	jr	$31
80000fc8:	00000000 	sll	$0,$0,0x0

80000fcc <_Z6printfPKc>:
80000fcc:	27bdfff8 	addiu	$29,$29,-8
80000fd0:	afbe0004 	sw	$30,4($29)
80000fd4:	03a0f025 	or	$30,$29,$0
80000fd8:	afc40008 	sw	$4,8($30)
80000fdc:	00000000 	sll	$0,$0,0x0
80000fe0:	03c0e825 	or	$29,$30,$0
80000fe4:	8fbe0004 	lw	$30,4($29)
80000fe8:	27bd0008 	addiu	$29,$29,8
80000fec:	03e00008 	jr	$31
80000ff0:	00000000 	sll	$0,$0,0x0

80000ff4 <_Z6memsetPvcm>:
80000ff4:	27bdfff0 	addiu	$29,$29,-16
80000ff8:	afbe000c 	sw	$30,12($29)
80000ffc:	03a0f025 	or	$30,$29,$0
80001000:	afc40010 	sw	$4,16($30)
80001004:	00a01025 	or	$2,$5,$0
80001008:	afc60018 	sw	$6,24($30)
8000100c:	a3c20014 	sb	$2,20($30)
80001010:	8fc20010 	lw	$2,16($30)
80001014:	afc20000 	sw	$2,0($30)
80001018:	8fc20018 	lw	$2,24($30)
8000101c:	2443ffff 	addiu	$3,$2,-1
80001020:	afc30018 	sw	$3,24($30)
80001024:	0002102b 	sltu	$2,$0,$2
80001028:	304200ff 	andi	$2,$2,0xff
8000102c:	10400008 	beqz	$2,80001050 <_Z6memsetPvcm+0x5c>
80001030:	00000000 	sll	$0,$0,0x0
80001034:	8fc20000 	lw	$2,0($30)
80001038:	24430001 	addiu	$3,$2,1
8000103c:	afc30000 	sw	$3,0($30)
80001040:	93c30014 	lbu	$3,20($30)
80001044:	a0430000 	sb	$3,0($2)
80001048:	1000fff3 	beqz	$0,80001018 <_Z6memsetPvcm+0x24>
8000104c:	00000000 	sll	$0,$0,0x0
80001050:	00000000 	sll	$0,$0,0x0
80001054:	03c0e825 	or	$29,$30,$0
80001058:	8fbe000c 	lw	$30,12($29)
8000105c:	27bd0010 	addiu	$29,$29,16
80001060:	03e00008 	jr	$31
80001064:	00000000 	sll	$0,$0,0x0

80001068 <_Z6memcpyPvS_m>:
80001068:	27bdfff0 	addiu	$29,$29,-16
8000106c:	afbe000c 	sw	$30,12($29)
80001070:	03a0f025 	or	$30,$29,$0
80001074:	afc40010 	sw	$4,16($30)
80001078:	afc50014 	sw	$5,20($30)
8000107c:	afc60018 	sw	$6,24($30)
80001080:	8fc20010 	lw	$2,16($30)
80001084:	afc20000 	sw	$2,0($30)
80001088:	8fc20014 	lw	$2,20($30)
8000108c:	afc20004 	sw	$2,4($30)
80001090:	8fc20018 	lw	$2,24($30)
80001094:	2443ffff 	addiu	$3,$2,-1
80001098:	afc30018 	sw	$3,24($30)
8000109c:	0002102b 	sltu	$2,$0,$2
800010a0:	304200ff 	andi	$2,$2,0xff
800010a4:	1040000b 	beqz	$2,800010d4 <_Z6memcpyPvS_m+0x6c>
800010a8:	00000000 	sll	$0,$0,0x0
800010ac:	8fc30004 	lw	$3,4($30)
800010b0:	24620001 	addiu	$2,$3,1
800010b4:	afc20004 	sw	$2,4($30)
800010b8:	8fc20000 	lw	$2,0($30)
800010bc:	24440001 	addiu	$4,$2,1
800010c0:	afc40000 	sw	$4,0($30)
800010c4:	80630000 	lb	$3,0($3)
800010c8:	a0430000 	sb	$3,0($2)
800010cc:	1000fff0 	beqz	$0,80001090 <_Z6memcpyPvS_m+0x28>
800010d0:	00000000 	sll	$0,$0,0x0
800010d4:	00000000 	sll	$0,$0,0x0
800010d8:	03c0e825 	or	$29,$30,$0
800010dc:	8fbe000c 	lw	$30,12($29)
800010e0:	27bd0010 	addiu	$29,$29,16
800010e4:	03e00008 	jr	$31
800010e8:	00000000 	sll	$0,$0,0x0

800010ec <_Z3minjj>:
800010ec:	27bdfff8 	addiu	$29,$29,-8
800010f0:	afbe0004 	sw	$30,4($29)
800010f4:	03a0f025 	or	$30,$29,$0
800010f8:	afc40008 	sw	$4,8($30)
800010fc:	afc5000c 	sw	$5,12($30)
80001100:	8fc30008 	lw	$3,8($30)
80001104:	8fc2000c 	lw	$2,12($30)
80001108:	0043102b 	sltu	$2,$2,$3
8000110c:	10400004 	beqz	$2,80001120 <_Z3minjj+0x34>
80001110:	00000000 	sll	$0,$0,0x0
80001114:	8fc2000c 	lw	$2,12($30)
80001118:	10000002 	beqz	$0,80001124 <_Z3minjj+0x38>
8000111c:	00000000 	sll	$0,$0,0x0
80001120:	8fc20008 	lw	$2,8($30)
80001124:	03c0e825 	or	$29,$30,$0
80001128:	8fbe0004 	lw	$30,4($29)
8000112c:	27bd0008 	addiu	$29,$29,8
80001130:	03e00008 	jr	$31
80001134:	00000000 	sll	$0,$0,0x0

80001138 <_Z7hextochi>:
80001138:	27bdfff8 	addiu	$29,$29,-8
8000113c:	afbe0004 	sw	$30,4($29)
80001140:	03a0f025 	or	$30,$29,$0
80001144:	afc40008 	sw	$4,8($30)
80001148:	8fc20008 	lw	$2,8($30)
8000114c:	2842000a 	slti	$2,$2,10
80001150:	10400009 	beqz	$2,80001178 <_Z7hextochi+0x40>
80001154:	00000000 	sll	$0,$0,0x0
80001158:	8fc20008 	lw	$2,8($30)
8000115c:	304200ff 	andi	$2,$2,0xff
80001160:	24420030 	addiu	$2,$2,48
80001164:	304200ff 	andi	$2,$2,0xff
80001168:	00021600 	sll	$2,$2,0x18
8000116c:	00021603 	sra	$2,$2,0x18
80001170:	10000007 	beqz	$0,80001190 <_Z7hextochi+0x58>
80001174:	00000000 	sll	$0,$0,0x0
80001178:	8fc20008 	lw	$2,8($30)
8000117c:	304200ff 	andi	$2,$2,0xff
80001180:	24420057 	addiu	$2,$2,87
80001184:	304200ff 	andi	$2,$2,0xff
80001188:	00021600 	sll	$2,$2,0x18
8000118c:	00021603 	sra	$2,$2,0x18
80001190:	03c0e825 	or	$29,$30,$0
80001194:	8fbe0004 	lw	$30,4($29)
80001198:	27bd0008 	addiu	$29,$29,8
8000119c:	03e00008 	jr	$31
800011a0:	00000000 	sll	$0,$0,0x0

800011a4 <main>:
800011a4:	27bdffb8 	addiu	$29,$29,-72
800011a8:	afbf0044 	sw	$31,68($29)
800011ac:	afbe0040 	sw	$30,64($29)
800011b0:	03a0f025 	or	$30,$29,$0
800011b4:	afc00024 	sw	$0,36($30)
800011b8:	27c50034 	addiu	$5,$30,52
800011bc:	27c4002c 	addiu	$4,$30,44
800011c0:	27c2003c 	addiu	$2,$30,60
800011c4:	afa20018 	sw	$2,24($29)
800011c8:	240203e8 	addiu	$2,$0,1000
800011cc:	00001825 	or	$3,$0,$0
800011d0:	afa20010 	sw	$2,16($29)
800011d4:	afa30014 	sw	$3,20($29)
800011d8:	00a03825 	or	$7,$5,$0
800011dc:	00803025 	or	$6,$4,$0
800011e0:	3c028000 	lui	$2,0x8000
800011e4:	244517f0 	addiu	$5,$2,6128
800011e8:	8fc40024 	lw	$4,36($30)
800011ec:	0c0000fa 	jal	800003e8 <ReceiveIPPacket>
800011f0:	00000000 	sll	$0,$0,0x0
800011f4:	afc20028 	sw	$2,40($30)
800011f8:	8fc30028 	lw	$3,40($30)
800011fc:	2402fc1c 	addiu	$2,$0,-996
80001200:	14620003 	bne	$3,$2,80001210 <main+0x6c>
80001204:	00000000 	sll	$0,$0,0x0
80001208:	10000040 	beqz	$0,8000130c <main+0x168>
8000120c:	00000000 	sll	$0,$0,0x0
80001210:	8fc20028 	lw	$2,40($30)
80001214:	04410004 	bgez	$2,80001228 <main+0x84>
80001218:	00000000 	sll	$0,$0,0x0
8000121c:	8fc20028 	lw	$2,40($30)
80001220:	1000003a 	beqz	$0,8000130c <main+0x168>
80001224:	00000000 	sll	$0,$0,0x0
80001228:	8fc20028 	lw	$2,40($30)
8000122c:	10400031 	beqz	$2,800012f4 <main+0x150>
80001230:	00000000 	sll	$0,$0,0x0
80001234:	8fc20028 	lw	$2,40($30)
80001238:	2c420801 	sltiu	$2,$2,2049
8000123c:	10400030 	beqz	$2,80001300 <main+0x15c>
80001240:	00000000 	sll	$0,$0,0x0
80001244:	afc00020 	sw	$0,32($30)
80001248:	8fc30020 	lw	$3,32($30)
8000124c:	8fc20028 	lw	$2,40($30)
80001250:	0062102a 	slt	$2,$3,$2
80001254:	1040ffd8 	beqz	$2,800011b8 <main+0x14>
80001258:	00000000 	sll	$0,$0,0x0
8000125c:	8fc20020 	lw	$2,32($30)
80001260:	3042000f 	andi	$2,$2,0xf
80001264:	14400004 	bnez	$2,80001278 <main+0xd4>
80001268:	00000000 	sll	$0,$0,0x0
8000126c:	2404000a 	addiu	$4,$0,10
80001270:	0c0001ad 	jal	800006b4 <putc>
80001274:	00000000 	sll	$0,$0,0x0
80001278:	3c028000 	lui	$2,0x8000
8000127c:	244317f0 	addiu	$3,$2,6128
80001280:	8fc20020 	lw	$2,32($30)
80001284:	00621021 	addu	$2,$3,$2
80001288:	90420000 	lbu	$2,0($2)
8000128c:	00402025 	or	$4,$2,$0
80001290:	0c00044e 	jal	80001138 <_Z7hextochi>
80001294:	00000000 	sll	$0,$0,0x0
80001298:	00402025 	or	$4,$2,$0
8000129c:	0c0001ad 	jal	800006b4 <putc>
800012a0:	00000000 	sll	$0,$0,0x0
800012a4:	3c028000 	lui	$2,0x8000
800012a8:	244317f0 	addiu	$3,$2,6128
800012ac:	8fc20020 	lw	$2,32($30)
800012b0:	00621021 	addu	$2,$3,$2
800012b4:	90420000 	lbu	$2,0($2)
800012b8:	3042ff00 	andi	$2,$2,0xff00
800012bc:	00402025 	or	$4,$2,$0
800012c0:	0c00044e 	jal	80001138 <_Z7hextochi>
800012c4:	00000000 	sll	$0,$0,0x0
800012c8:	00402025 	or	$4,$2,$0
800012cc:	0c0001ad 	jal	800006b4 <putc>
800012d0:	00000000 	sll	$0,$0,0x0
800012d4:	24040020 	addiu	$4,$0,32
800012d8:	0c0001ad 	jal	800006b4 <putc>
800012dc:	00000000 	sll	$0,$0,0x0
800012e0:	8fc20020 	lw	$2,32($30)
800012e4:	24420001 	addiu	$2,$2,1
800012e8:	afc20020 	sw	$2,32($30)
800012ec:	1000ffd6 	beqz	$0,80001248 <main+0xa4>
800012f0:	00000000 	sll	$0,$0,0x0
800012f4:	00000000 	sll	$0,$0,0x0
800012f8:	1000ffaf 	beqz	$0,800011b8 <main+0x14>
800012fc:	00000000 	sll	$0,$0,0x0
80001300:	00000000 	sll	$0,$0,0x0
80001304:	1000ffac 	beqz	$0,800011b8 <main+0x14>
80001308:	00000000 	sll	$0,$0,0x0
8000130c:	03c0e825 	or	$29,$30,$0
80001310:	8fbf0044 	lw	$31,68($29)
80001314:	8fbe0040 	lw	$30,64($29)
80001318:	27bd0048 	addiu	$29,$29,72
8000131c:	03e00008 	jr	$31
80001320:	00000000 	sll	$0,$0,0x0
	...

Disassembly of section .rodata:

80001330 <_ZL19BUFFER_TAIL_ADDRESS>:
80001330:	bfd00400 	cache	0x10,1024($30)

80001334 <_ZL20SEND_CONTROL_ADDRESS>:
80001334:	bfd00408 	cache	0x10,1032($30)

80001338 <_ZL18SEND_STATE_ADDRESS>:
80001338:	bfd00404 	cache	0x10,1028($30)

8000133c <_ZL19BUFFER_BASE_ADDRESS>:
8000133c:	80600000 	lb	$0,0($3)

80001340 <_ZL17ROUTER_TABLE_BASE>:
80001340:	bfd00410 	cache	0x10,1040($30)
	...
80001350:	00005442 	srl	$10,$0,0x11
80001354:	00204c41 	0x204c41
	...

Disassembly of section .reginfo:

80001360 <.reginfo>:
80001360:	e00301fc 	sc	$3,508($0)
	...

Disassembly of section .MIPS.abiflags:

80001378 <.MIPS.abiflags>:
80001378:	01200000 	0x1200000
8000137c:	02000101 	0x2000101
	...
80001388:	00000001 	movf	$0,$0,$fcc0
8000138c:	00000000 	sll	$0,$0,0x0

Disassembly of section .eh_frame:

80001390 <.eh_frame>:
80001390:	00000010 	mfhi	$0
80001394:	00000000 	sll	$0,$0,0x0
80001398:	00527a01 	0x527a01
8000139c:	011f7c01 	0x11f7c01
800013a0:	001d0d0b 	0x1d0d0b
800013a4:	00000020 	add	$0,$0,$0
800013a8:	00000018 	mult	$0,$0
800013ac:	80000398 	lb	$0,920($0)
800013b0:	00000028 	0x28
800013b4:	080e4400 	j	80391000 <_bss_end+0x38f010>
800013b8:	44019e44 	0x44019e44
800013bc:	0d4c1e0d 	jal	85307834 <_bss_end+0x5305844>
800013c0:	0ede481d 	jal	8b792074 <_bss_end+0xb790084>
800013c4:	00000000 	sll	$0,$0,0x0
800013c8:	00000020 	add	$0,$0,$0
800013cc:	0000003c 	0x3c
800013d0:	800003c0 	lb	$0,960($0)
800013d4:	00000028 	0x28
800013d8:	080e4400 	j	80391000 <_bss_end+0x38f010>
800013dc:	44019e44 	0x44019e44
800013e0:	0d4c1e0d 	jal	85307834 <_bss_end+0x5305844>
800013e4:	0ede481d 	jal	8b792074 <_bss_end+0xb790084>
800013e8:	00000000 	sll	$0,$0,0x0
800013ec:	00000028 	0x28
800013f0:	00000060 	0x60
800013f4:	800003e8 	lb	$0,1000($0)
800013f8:	000001dc 	0x1dc
800013fc:	300e4400 	andi	$14,$0,0x4400
80001400:	9e019f50 	0x9e019f50
80001404:	90039102 	lbu	$3,-28414($0)
80001408:	1e0d4404 	0x1e0d4404
8000140c:	0d01a803 	jal	8406a00c <_bss_end+0x406801c>
80001410:	d1d0541d 	0xd1d0541d
80001414:	000edfde 	0xedfde
80001418:	00000020 	add	$0,$0,$0
8000141c:	0000008c 	syscall	0x2
80001420:	800005c4 	lb	$0,1476($0)
80001424:	000000f0 	tge	$0,$0,0x3
80001428:	100e4400 	beq	$0,$14,8001242c <_bss_end+0x1043c>
8000142c:	44019e44 	0x44019e44
80001430:	d4021e0d 	ldc1	$f2,7693($0)
80001434:	de481d0d 	ldc3	$8,7437($18)
80001438:	0000000e 	0xe
8000143c:	00000020 	add	$0,$0,$0
80001440:	000000b0 	tge	$0,$0,0x2
80001444:	800006b4 	lb	$0,1716($0)
80001448:	00000064 	0x64
8000144c:	080e4400 	j	80391000 <_bss_end+0x38f010>
80001450:	44019e44 	0x44019e44
80001454:	48021e0d 	0x48021e0d
80001458:	de481d0d 	ldc3	$8,7437($18)
8000145c:	0000000e 	0xe
80001460:	00000020 	add	$0,$0,$0
80001464:	000000d4 	0xd4
80001468:	80000718 	lb	$0,1816($0)
8000146c:	00000058 	0x58
80001470:	080e4400 	j	80391000 <_bss_end+0x38f010>
80001474:	44019e44 	0x44019e44
80001478:	0d7c1e0d 	jal	85f07834 <_bss_end+0x5f05844>
8000147c:	0ede481d 	jal	8b792074 <_bss_end+0xb790084>
80001480:	00000000 	sll	$0,$0,0x0
80001484:	00000024 	and	$0,$0,$0
80001488:	000000f8 	0xf8
8000148c:	80000770 	lb	$0,1904($0)
80001490:	000000b4 	teq	$0,$0,0x2
80001494:	200e4400 	addi	$14,$0,17408
80001498:	9e019f48 	0x9e019f48
8000149c:	1e0d4402 	0x1e0d4402
800014a0:	1d0d9002 	0x1d0d9002
800014a4:	0edfde4c 	jal	8b7f7930 <_bss_end+0xb7f5940>
800014a8:	00000000 	sll	$0,$0,0x0
800014ac:	00000024 	and	$0,$0,$0
800014b0:	00000120 	0x120
800014b4:	80000824 	lb	$0,2084($0)
800014b8:	00000070 	tge	$0,$0,0x1
800014bc:	180e4400 	0x180e4400
800014c0:	9e019f48 	0x9e019f48
800014c4:	1e0d4402 	0x1e0d4402
800014c8:	1d0d4c02 	0x1d0d4c02
800014cc:	0edfde4c 	jal	8b7f7930 <_bss_end+0xb7f5940>
800014d0:	00000000 	sll	$0,$0,0x0
800014d4:	00000024 	and	$0,$0,$0
800014d8:	00000148 	0x148
800014dc:	80000894 	lb	$0,2196($0)
800014e0:	000000f4 	teq	$0,$0,0x3
800014e4:	200e4400 	addi	$14,$0,17408
800014e8:	9e019f48 	0x9e019f48
800014ec:	1e0d4402 	0x1e0d4402
800014f0:	1d0dd002 	0x1d0dd002
800014f4:	0edfde4c 	jal	8b7f7930 <_bss_end+0xb7f5940>
800014f8:	00000000 	sll	$0,$0,0x0
800014fc:	00000020 	add	$0,$0,$0
80001500:	00000170 	tge	$0,$0,0x5
80001504:	80000988 	lb	$0,2440($0)
80001508:	0000003c 	0x3c
8000150c:	180e4400 	0x180e4400
80001510:	9e019f48 	0x9e019f48
80001514:	1e0d4402 	0x1e0d4402
80001518:	4c1d0d58 	0x4c1d0d58
8000151c:	000edfde 	0xedfde
80001520:	00000020 	add	$0,$0,$0
80001524:	00000194 	0x194
80001528:	800009c4 	lb	$0,2500($0)
8000152c:	0000004c 	syscall	0x1
80001530:	180e4400 	0x180e4400
80001534:	9e019f48 	0x9e019f48
80001538:	1e0d4402 	0x1e0d4402
8000153c:	4c1d0d68 	0x4c1d0d68
80001540:	000edfde 	0xedfde
80001544:	00000020 	add	$0,$0,$0
80001548:	000001b8 	0x1b8
8000154c:	80000a10 	lb	$0,2576($0)
80001550:	00000054 	0x54
80001554:	080e4400 	j	80391000 <_bss_end+0x38f010>
80001558:	44019e44 	0x44019e44
8000155c:	0d781e0d 	jal	85e07834 <_bss_end+0x5e05844>
80001560:	0ede481d 	jal	8b792074 <_bss_end+0xb790084>
80001564:	00000000 	sll	$0,$0,0x0
80001568:	00000020 	add	$0,$0,$0
8000156c:	000001dc 	0x1dc
80001570:	80000a64 	lb	$0,2660($0)
80001574:	00000068 	0x68
80001578:	080e4400 	j	80391000 <_bss_end+0x38f010>
8000157c:	44019e44 	0x44019e44
80001580:	4c021e0d 	0x4c021e0d
80001584:	de481d0d 	ldc3	$8,7437($18)
80001588:	0000000e 	0xe
8000158c:	00000020 	add	$0,$0,$0
80001590:	00000200 	sll	$0,$0,0x8
80001594:	80000acc 	lb	$0,2764($0)
80001598:	000000f8 	0xf8
8000159c:	080e4400 	j	80391000 <_bss_end+0x38f010>
800015a0:	44019e44 	0x44019e44
800015a4:	dc021e0d 	ldc3	$2,7693($0)
800015a8:	de481d0d 	ldc3	$8,7437($18)
800015ac:	0000000e 	0xe
800015b0:	00000024 	and	$0,$0,$0
800015b4:	00000224 	0x224
800015b8:	80000bc4 	lb	$0,3012($0)
800015bc:	0000008c 	syscall	0x2
800015c0:	180e4400 	0x180e4400
800015c4:	9e019f48 	0x9e019f48
800015c8:	1e0d4402 	0x1e0d4402
800015cc:	1d0d6802 	0x1d0d6802
800015d0:	0edfde4c 	jal	8b7f7930 <_bss_end+0xb7f5940>
800015d4:	00000000 	sll	$0,$0,0x0
800015d8:	00000024 	and	$0,$0,$0
800015dc:	0000024c 	syscall	0x9
800015e0:	80000c50 	lb	$0,3152($0)
800015e4:	00000090 	0x90
800015e8:	200e4400 	addi	$14,$0,17408
800015ec:	9e019f48 	0x9e019f48
800015f0:	1e0d4402 	0x1e0d4402
800015f4:	1d0d6c02 	0x1d0d6c02
800015f8:	0edfde4c 	jal	8b7f7930 <_bss_end+0xb7f5940>
800015fc:	00000000 	sll	$0,$0,0x0
80001600:	00000024 	and	$0,$0,$0
80001604:	00000274 	teq	$0,$0,0x9
80001608:	80000ce0 	lb	$0,3296($0)
8000160c:	0000006c 	0x6c
80001610:	180e4400 	0x180e4400
80001614:	9e019f48 	0x9e019f48
80001618:	1e0d4402 	0x1e0d4402
8000161c:	1d0d4802 	0x1d0d4802
80001620:	0edfde4c 	jal	8b7f7930 <_bss_end+0xb7f5940>
80001624:	00000000 	sll	$0,$0,0x0
80001628:	00000024 	and	$0,$0,$0
8000162c:	0000029c 	0x29c
80001630:	80000d4c 	lb	$0,3404($0)
80001634:	000000e4 	0xe4
80001638:	280e4400 	slti	$14,$0,17408
8000163c:	9e019f48 	0x9e019f48
80001640:	1e0d4402 	0x1e0d4402
80001644:	1d0dc002 	0x1d0dc002
80001648:	0edfde4c 	jal	8b7f7930 <_bss_end+0xb7f5940>
8000164c:	00000000 	sll	$0,$0,0x0
80001650:	00000020 	add	$0,$0,$0
80001654:	000002c4 	0x2c4
80001658:	80000e30 	lb	$0,3632($0)
8000165c:	0000005c 	0x5c
80001660:	080e4400 	j	80391000 <_bss_end+0x38f010>
80001664:	44019e44 	0x44019e44
80001668:	40021e0d 	0x40021e0d
8000166c:	de481d0d 	ldc3	$8,7437($18)
80001670:	0000000e 	0xe
80001674:	00000020 	add	$0,$0,$0
80001678:	000002e8 	0x2e8
8000167c:	80000e8c 	lb	$0,3724($0)
80001680:	0000005c 	0x5c
80001684:	080e4400 	j	80391000 <_bss_end+0x38f010>
80001688:	44019e44 	0x44019e44
8000168c:	40021e0d 	0x40021e0d
80001690:	de481d0d 	ldc3	$8,7437($18)
80001694:	0000000e 	0xe
80001698:	00000020 	add	$0,$0,$0
8000169c:	0000030c 	syscall	0xc
800016a0:	80000ee8 	lb	$0,3816($0)
800016a4:	0000005c 	0x5c
800016a8:	080e4400 	j	80391000 <_bss_end+0x38f010>
800016ac:	44019e44 	0x44019e44
800016b0:	40021e0d 	0x40021e0d
800016b4:	de481d0d 	ldc3	$8,7437($18)
800016b8:	0000000e 	0xe
800016bc:	00000020 	add	$0,$0,$0
800016c0:	00000330 	tge	$0,$0,0xc
800016c4:	80000f44 	lb	$0,3908($0)
800016c8:	0000005c 	0x5c
800016cc:	080e4400 	j	80391000 <_bss_end+0x38f010>
800016d0:	44019e44 	0x44019e44
800016d4:	40021e0d 	0x40021e0d
800016d8:	de481d0d 	ldc3	$8,7437($18)
800016dc:	0000000e 	0xe
800016e0:	00000020 	add	$0,$0,$0
800016e4:	00000354 	0x354
800016e8:	80000fa0 	lb	$0,4000($0)
800016ec:	0000002c 	0x2c
800016f0:	080e4400 	j	80391000 <_bss_end+0x38f010>
800016f4:	44019e44 	0x44019e44
800016f8:	0d501e0d 	jal	85407834 <_bss_end+0x5405844>
800016fc:	0ede481d 	jal	8b792074 <_bss_end+0xb790084>
80001700:	00000000 	sll	$0,$0,0x0
80001704:	00000020 	add	$0,$0,$0
80001708:	00000378 	0x378
8000170c:	80000fcc 	lb	$0,4044($0)
80001710:	00000028 	0x28
80001714:	080e4400 	j	80391000 <_bss_end+0x38f010>
80001718:	44019e44 	0x44019e44
8000171c:	0d4c1e0d 	jal	85307834 <_bss_end+0x5305844>
80001720:	0ede481d 	jal	8b792074 <_bss_end+0xb790084>
80001724:	00000000 	sll	$0,$0,0x0
80001728:	00000020 	add	$0,$0,$0
8000172c:	0000039c 	0x39c
80001730:	80000ff4 	lb	$0,4084($0)
80001734:	00000074 	teq	$0,$0,0x1
80001738:	100e4400 	beq	$0,$14,8001273c <_bss_end+0x1074c>
8000173c:	44019e44 	0x44019e44
80001740:	58021e0d 	0x58021e0d
80001744:	de481d0d 	ldc3	$8,7437($18)
80001748:	0000000e 	0xe
8000174c:	00000020 	add	$0,$0,$0
80001750:	000003c0 	sll	$0,$0,0xf
80001754:	80001068 	lb	$0,4200($0)
80001758:	00000084 	0x84
8000175c:	100e4400 	beq	$0,$14,80012760 <_bss_end+0x10770>
80001760:	44019e44 	0x44019e44
80001764:	68021e0d 	0x68021e0d
80001768:	de481d0d 	ldc3	$8,7437($18)
8000176c:	0000000e 	0xe
80001770:	00000020 	add	$0,$0,$0
80001774:	000003e4 	0x3e4
80001778:	800010ec 	lb	$0,4332($0)
8000177c:	0000004c 	syscall	0x1
80001780:	080e4400 	j	80391000 <_bss_end+0x38f010>
80001784:	44019e44 	0x44019e44
80001788:	0d701e0d 	jal	85c07834 <_bss_end+0x5c05844>
8000178c:	0ede481d 	jal	8b792074 <_bss_end+0xb790084>
80001790:	00000000 	sll	$0,$0,0x0
80001794:	00000020 	add	$0,$0,$0
80001798:	00000408 	jr.hb	$0
8000179c:	80001138 	lb	$0,4408($0)
800017a0:	0000006c 	0x6c
800017a4:	080e4400 	j	80391000 <_bss_end+0x38f010>
800017a8:	44019e44 	0x44019e44
800017ac:	50021e0d 	beql	$0,$2,80008fe4 <_bss_end+0x6ff4>
800017b0:	de481d0d 	ldc3	$8,7437($18)
800017b4:	0000000e 	0xe
800017b8:	00000024 	and	$0,$0,$0
800017bc:	0000042c 	0x42c
800017c0:	800011a4 	lb	$0,4516($0)
800017c4:	00000180 	sll	$0,$0,0x6
800017c8:	480e4400 	0x480e4400
800017cc:	9e019f48 	0x9e019f48
800017d0:	1e0d4402 	0x1e0d4402
800017d4:	0d015c03 	jal	8405700c <_bss_end+0x405501c>
800017d8:	dfde4c1d 	ldc3	$30,19485($30)
800017dc:	0000000e 	0xe

Disassembly of section .data:

800017e0 <UART_RX>:
800017e0:	bfd003f8 	cache	0x10,1016($30)

800017e4 <UART_TX>:
800017e4:	bfd003f8 	cache	0x10,1016($30)

800017e8 <UART_STAT>:
800017e8:	bfd003fc 	cache	0x10,1020($30)
800017ec:	00000000 	sll	$0,$0,0x0

Disassembly of section .bss:

800017f0 <packet>:
	...

Disassembly of section .pdr:

00000000 <.pdr>:
   0:	80000398 	lb	$0,920($0)
   4:	40000000 	mfc0	$0,c0_index
   8:	fffffffc 	sdc3	$31,-4($31)
	...
  14:	00000008 	jr	$0
  18:	0000001e 	0x1e
  1c:	0000001f 	0x1f
  20:	800003c0 	lb	$0,960($0)
  24:	40000000 	mfc0	$0,c0_index
  28:	fffffffc 	sdc3	$31,-4($31)
	...
  34:	00000008 	jr	$0
  38:	0000001e 	0x1e
  3c:	0000001f 	0x1f
  40:	800003e8 	lb	$0,1000($0)
  44:	c0030000 	ll	$3,0($0)
  48:	fffffffc 	sdc3	$31,-4($31)
	...
  54:	00000030 	tge	$0,$0
  58:	0000001e 	0x1e
  5c:	0000001f 	0x1f
  60:	800005c4 	lb	$0,1476($0)
  64:	40000000 	mfc0	$0,c0_index
  68:	fffffffc 	sdc3	$31,-4($31)
	...
  74:	00000010 	mfhi	$0
  78:	0000001e 	0x1e
  7c:	0000001f 	0x1f
  80:	800006b4 	lb	$0,1716($0)
  84:	40000000 	mfc0	$0,c0_index
  88:	fffffffc 	sdc3	$31,-4($31)
	...
  94:	00000008 	jr	$0
  98:	0000001e 	0x1e
  9c:	0000001f 	0x1f
  a0:	80000718 	lb	$0,1816($0)
  a4:	40000000 	mfc0	$0,c0_index
  a8:	fffffffc 	sdc3	$31,-4($31)
	...
  b4:	00000008 	jr	$0
  b8:	0000001e 	0x1e
  bc:	0000001f 	0x1f
  c0:	80000770 	lb	$0,1904($0)
  c4:	c0000000 	ll	$0,0($0)
  c8:	fffffffc 	sdc3	$31,-4($31)
	...
  d4:	00000020 	add	$0,$0,$0
  d8:	0000001e 	0x1e
  dc:	0000001f 	0x1f
  e0:	80000824 	lb	$0,2084($0)
  e4:	c0000000 	ll	$0,0($0)
  e8:	fffffffc 	sdc3	$31,-4($31)
	...
  f4:	00000018 	mult	$0,$0
  f8:	0000001e 	0x1e
  fc:	0000001f 	0x1f
 100:	80000894 	lb	$0,2196($0)
 104:	c0000000 	ll	$0,0($0)
 108:	fffffffc 	sdc3	$31,-4($31)
	...
 114:	00000020 	add	$0,$0,$0
 118:	0000001e 	0x1e
 11c:	0000001f 	0x1f
 120:	80000988 	lb	$0,2440($0)
 124:	c0000000 	ll	$0,0($0)
 128:	fffffffc 	sdc3	$31,-4($31)
	...
 134:	00000018 	mult	$0,$0
 138:	0000001e 	0x1e
 13c:	0000001f 	0x1f
 140:	800009c4 	lb	$0,2500($0)
 144:	c0000000 	ll	$0,0($0)
 148:	fffffffc 	sdc3	$31,-4($31)
	...
 154:	00000018 	mult	$0,$0
 158:	0000001e 	0x1e
 15c:	0000001f 	0x1f
 160:	80000a10 	lb	$0,2576($0)
 164:	40000000 	mfc0	$0,c0_index
 168:	fffffffc 	sdc3	$31,-4($31)
	...
 174:	00000008 	jr	$0
 178:	0000001e 	0x1e
 17c:	0000001f 	0x1f
 180:	80000a64 	lb	$0,2660($0)
 184:	40000000 	mfc0	$0,c0_index
 188:	fffffffc 	sdc3	$31,-4($31)
	...
 194:	00000008 	jr	$0
 198:	0000001e 	0x1e
 19c:	0000001f 	0x1f
 1a0:	80000acc 	lb	$0,2764($0)
 1a4:	40000000 	mfc0	$0,c0_index
 1a8:	fffffffc 	sdc3	$31,-4($31)
	...
 1b4:	00000008 	jr	$0
 1b8:	0000001e 	0x1e
 1bc:	0000001f 	0x1f
 1c0:	80000bc4 	lb	$0,3012($0)
 1c4:	c0000000 	ll	$0,0($0)
 1c8:	fffffffc 	sdc3	$31,-4($31)
	...
 1d4:	00000018 	mult	$0,$0
 1d8:	0000001e 	0x1e
 1dc:	0000001f 	0x1f
 1e0:	80000c50 	lb	$0,3152($0)
 1e4:	c0000000 	ll	$0,0($0)
 1e8:	fffffffc 	sdc3	$31,-4($31)
	...
 1f4:	00000020 	add	$0,$0,$0
 1f8:	0000001e 	0x1e
 1fc:	0000001f 	0x1f
 200:	80000ce0 	lb	$0,3296($0)
 204:	c0000000 	ll	$0,0($0)
 208:	fffffffc 	sdc3	$31,-4($31)
	...
 214:	00000018 	mult	$0,$0
 218:	0000001e 	0x1e
 21c:	0000001f 	0x1f
 220:	80000d4c 	lb	$0,3404($0)
 224:	c0000000 	ll	$0,0($0)
 228:	fffffffc 	sdc3	$31,-4($31)
	...
 234:	00000028 	0x28
 238:	0000001e 	0x1e
 23c:	0000001f 	0x1f
 240:	80000e30 	lb	$0,3632($0)
 244:	40000000 	mfc0	$0,c0_index
 248:	fffffffc 	sdc3	$31,-4($31)
	...
 254:	00000008 	jr	$0
 258:	0000001e 	0x1e
 25c:	0000001f 	0x1f
 260:	80000e8c 	lb	$0,3724($0)
 264:	40000000 	mfc0	$0,c0_index
 268:	fffffffc 	sdc3	$31,-4($31)
	...
 274:	00000008 	jr	$0
 278:	0000001e 	0x1e
 27c:	0000001f 	0x1f
 280:	80000ee8 	lb	$0,3816($0)
 284:	40000000 	mfc0	$0,c0_index
 288:	fffffffc 	sdc3	$31,-4($31)
	...
 294:	00000008 	jr	$0
 298:	0000001e 	0x1e
 29c:	0000001f 	0x1f
 2a0:	80000f44 	lb	$0,3908($0)
 2a4:	40000000 	mfc0	$0,c0_index
 2a8:	fffffffc 	sdc3	$31,-4($31)
	...
 2b4:	00000008 	jr	$0
 2b8:	0000001e 	0x1e
 2bc:	0000001f 	0x1f
 2c0:	80000fa0 	lb	$0,4000($0)
 2c4:	40000000 	mfc0	$0,c0_index
 2c8:	fffffffc 	sdc3	$31,-4($31)
	...
 2d4:	00000008 	jr	$0
 2d8:	0000001e 	0x1e
 2dc:	0000001f 	0x1f
 2e0:	80000fcc 	lb	$0,4044($0)
 2e4:	40000000 	mfc0	$0,c0_index
 2e8:	fffffffc 	sdc3	$31,-4($31)
	...
 2f4:	00000008 	jr	$0
 2f8:	0000001e 	0x1e
 2fc:	0000001f 	0x1f
 300:	80000ff4 	lb	$0,4084($0)
 304:	40000000 	mfc0	$0,c0_index
 308:	fffffffc 	sdc3	$31,-4($31)
	...
 314:	00000010 	mfhi	$0
 318:	0000001e 	0x1e
 31c:	0000001f 	0x1f
 320:	80001068 	lb	$0,4200($0)
 324:	40000000 	mfc0	$0,c0_index
 328:	fffffffc 	sdc3	$31,-4($31)
	...
 334:	00000010 	mfhi	$0
 338:	0000001e 	0x1e
 33c:	0000001f 	0x1f
 340:	800010ec 	lb	$0,4332($0)
 344:	40000000 	mfc0	$0,c0_index
 348:	fffffffc 	sdc3	$31,-4($31)
	...
 354:	00000008 	jr	$0
 358:	0000001e 	0x1e
 35c:	0000001f 	0x1f
 360:	80001138 	lb	$0,4408($0)
 364:	40000000 	mfc0	$0,c0_index
 368:	fffffffc 	sdc3	$31,-4($31)
	...
 374:	00000008 	jr	$0
 378:	0000001e 	0x1e
 37c:	0000001f 	0x1f
 380:	800011a4 	lb	$0,4516($0)
 384:	c0000000 	ll	$0,0($0)
 388:	fffffffc 	sdc3	$31,-4($31)
	...
 394:	00000048 	0x48
 398:	0000001e 	0x1e
 39c:	0000001f 	0x1f

Disassembly of section .comment:

00000000 <.comment>:
   0:	3a434347 	xori	$3,$18,0x4347
   4:	62552820 	0x62552820
   8:	75746e75 	jalx	5d1b9d4 <__start-0x7a2e462c>
   c:	342e3720 	ori	$14,$1,0x3720
  10:	312d302e 	andi	$13,$9,0x302e
  14:	6e756275 	0x6e756275
  18:	7e317574 	0x7e317574
  1c:	302e3831 	andi	$14,$1,0x3831
  20:	29312e34 	slti	$17,$9,11828
  24:	342e3720 	ori	$14,$1,0x3720
  28:	Address 0x0000000000000028 is out of bounds.


Disassembly of section .gnu.attributes:

00000000 <.gnu.attributes>:
   0:	00000f41 	0xf41
   4:	756e6700 	jalx	5b99c00 <__start-0x7a466400>
   8:	00070100 	sll	$0,$7,0x4
   c:	02040000 	0x2040000

Disassembly of section .debug_info:

00000000 <.debug_info>:
   0:	0000024c 	syscall	0x9
   4:	00000004 	sllv	$0,$0,$0
   8:	01040000 	0x1040000
   c:	0000003e 	0x3e
  10:	00003304 	0x3304
  14:	00016e00 	sll	$13,$1,0x18
	...
  24:	06010200 	bgez	$16,828 <__start-0x7ffff7d8>
  28:	00000122 	0x122
  2c:	81050202 	lb	$5,514($8)
  30:	03000002 	0x3000002
  34:	6e690504 	0x6e690504
  38:	0f040074 	jal	c1001d0 <__start-0x73effe30>
  3c:	02000001 	movf	$0,$16,$fcc0
  40:	0000452b 	0x452b
  44:	05080200 	tgei	$8,512
  48:	00000246 	0x246
  4c:	00022a04 	0x22a04
  50:	572e0200 	bnel	$25,$14,854 <__start-0x7ffff7ac>
  54:	02000000 	0x2000000
  58:	01200801 	movf	$1,$9,$fcc0
  5c:	9c040000 	0x9c040000
  60:	02000002 	0x2000002
  64:	00006931 	tgeu	$0,$0,0x1a4
  68:	07020200 	bltzl	$24,86c <__start-0x7ffff794>
  6c:	0000013f 	0x13f
  70:	0002a504 	0x2a504
  74:	85340200 	lh	$20,512($9)
  78:	05000000 	bltz	$8,7c <__start-0x7fffff84>
  7c:	00000070 	tge	$0,$0,0x1
  80:	00007006 	srlv	$14,$0,$0
  84:	07040200 	0x7040200
  88:	0000021d 	0x21d
  8c:	00010e04 	0x10e04
  90:	97370200 	lhu	$23,512($25)
  94:	02000000 	0x2000000
  98:	02130708 	0x2130708
  9c:	23040000 	addi	$4,$24,0
  a0:	03000000 	0x3000000
  a4:	0000a906 	0xa906
  a8:	07040200 	0x7040200
  ac:	00000218 	0x218
  b0:	0002ae04 	0x2ae04
  b4:	70050400 	0x70050400
  b8:	07000000 	bltz	$24,bc <__start-0x7fffff44>
  bc:	00000232 	tlt	$0,$0,0x8
  c0:	007b0301 	0x7b0301
  c4:	03050000 	0x3050000
  c8:	80001330 	lb	$0,4912($0)
  cc:	00025c07 	0x25c07
  d0:	7b040100 	0x7b040100
  d4:	05000000 	bltz	$8,d8 <__start-0x7fffff28>
  d8:	00133403 	sra	$6,$19,0x10
  dc:	02b80780 	0x2b80780
  e0:	05010000 	bgez	$8,e4 <__start-0x7fffff1c>
  e4:	0000007b 	0x7b
  e8:	13380305 	beq	$25,$24,d00 <__start-0x7ffff300>
  ec:	f7078000 	sdc1	$f7,-32768($24)
  f0:	01000001 	movf	$0,$8,$fcc0
  f4:	00007b06 	0x7b06
  f8:	3c030500 	lui	$3,0x500
  fc:	07800013 	bltz	$28,14c <__start-0x7ffffeb4>
 100:	000002cb 	0x2cb
 104:	007b0701 	0x7b0701
 108:	03050000 	0x3050000
 10c:	80001340 	lb	$0,4928($0)
 110:	00015708 	0x15708
 114:	332f0100 	andi	$15,$25,0x100
 118:	c4000000 	lwc1	$f0,0($0)
 11c:	f0800005 	0xf0800005
 120:	01000000 	0x1000000
 124:	0001709c 	0x1709c
 128:	01170900 	0x1170900
 12c:	2f010000 	sltiu	$1,$24,0
 130:	00000033 	tltu	$0,$0
 134:	09009102 	j	4024408 <__start-0x7bfdbbf8>
 138:	00000295 	0x295
 13c:	01702f01 	0x1702f01
 140:	91020000 	lbu	$2,0($8)
 144:	02dd0904 	0x2dd0904
 148:	2f010000 	sltiu	$1,$24,0
 14c:	0000009e 	0x9e
 150:	09089102 	j	4224408 <__start-0x7bddbbf8>
 154:	0000000f 	sync
 158:	01703001 	movf	$6,$11,$fcc4
 15c:	91020000 	lbu	$2,0($8)
 160:	0016070c 	syscall	0x581c
 164:	37010000 	ori	$1,$24,0x0
 168:	00000176 	tne	$0,$0,0x5
 16c:	00709102 	0x709102
 170:	004c040a 	0x4c040a
 174:	040a0000 	tlti	$0,0
 178:	00000080 	sll	$0,$0,0x2
 17c:	0002710b 	0x2710b
 180:	33130100 	andi	$19,$24,0x100
 184:	e8000000 	swc2	$0,0($0)
 188:	dc800003 	ldc3	$0,3($4)
 18c:	01000001 	movf	$0,$8,$fcc0
 190:	0002069c 	0x2069c
 194:	01640900 	0x1640900
 198:	13010000 	beq	$24,$1,19c <__start-0x7ffffe64>
 19c:	00000033 	tltu	$0,$0
 1a0:	09009102 	j	4024408 <__start-0x7bfdbbf8>
 1a4:	00000295 	0x295
 1a8:	01701301 	0x1701301
 1ac:	91020000 	lbu	$2,0($8)
 1b0:	01370904 	0x1370904
 1b4:	14010000 	bne	$0,$1,1b8 <__start-0x7ffffe48>
 1b8:	00000170 	tge	$0,$0,0x5
 1bc:	09089102 	j	4224408 <__start-0x7bddbbf8>
 1c0:	0000020b 	0x20b
 1c4:	01701401 	0x1701401
 1c8:	91020000 	lbu	$2,0($8)
 1cc:	0254090c 	syscall	0x95024
 1d0:	14010000 	bne	$0,$1,1d4 <__start-0x7ffffe2c>
 1d4:	0000003a 	0x3a
 1d8:	09109102 	j	4424408 <__start-0x7bbdbbf8>
 1dc:	00000117 	0x117
 1e0:	02061501 	0x2061501
 1e4:	91020000 	lbu	$2,0($8)
 1e8:	00000718 	0x718
 1ec:	18010000 	0x18010000
 1f0:	00000176 	tne	$0,$0,0x5
 1f4:	07609102 	bltz	$27,fffe4600 <_bss_end+0x7ffe2610>
 1f8:	0000028b 	0x28b
 1fc:	008c1901 	0x8c1901
 200:	91020000 	lbu	$2,0($8)
 204:	040a0068 	tlti	$0,104
 208:	00000033 	tltu	$0,$0
 20c:	00002a0c 	syscall	0xa8
 210:	8c0e0100 	lw	$14,256($0)
 214:	c0000000 	ll	$0,0($0)
 218:	28800003 	slti	$0,$4,3
 21c:	01000000 	0x1000000
 220:	0152089c 	0x152089c
 224:	09010000 	j	4040000 <__start-0x7bfc0000>
 228:	00000033 	tltu	$0,$0
 22c:	80000398 	lb	$0,920($0)
 230:	00000028 	0x28
 234:	02499c01 	0x2499c01
 238:	2e090000 	sltiu	$9,$16,0
 23c:	01000001 	movf	$0,$8,$fcc0
 240:	00024909 	0x24909
 244:	00910200 	0x910200
 248:	b0040a00 	0xb0040a00
 24c:	00000000 	sll	$0,$0,0x0
 250:	000001b1 	tgeu	$0,$0,0x6
 254:	00b80004 	sllv	$0,$24,$5
 258:	01040000 	0x1040000
 25c:	0000003e 	0x3e
 260:	00030504 	0x30504
 264:	00016e00 	sll	$13,$1,0x18
 268:	00002800 	sll	$5,$0,0x0
 26c:	00000000 	sll	$0,$0,0x0
 270:	0000ed00 	sll	$29,$0,0x14
 274:	06010200 	bgez	$16,a78 <__start-0x7ffff588>
 278:	00000122 	0x122
 27c:	81050202 	lb	$5,514($8)
 280:	03000002 	0x3000002
 284:	6e690504 	0x6e690504
 288:	08020074 	j	801d0 <__start-0x7ff7fe30>
 28c:	00024605 	0x24605
 290:	022a0400 	0x22a0400
 294:	2e020000 	sltiu	$2,$16,0
 298:	0000004c 	syscall	0x1
 29c:	20080102 	addi	$8,$0,258
 2a0:	02000001 	movf	$0,$16,$fcc0
 2a4:	013f0702 	0x13f0702
 2a8:	a5040000 	sh	$4,0($8)
 2ac:	02000002 	0x2000002
 2b0:	00006a34 	teq	$0,$0,0x1a8
 2b4:	005a0500 	0x5a0500
 2b8:	04020000 	bltzl	$0,2bc <__start-0x7ffffd44>
 2bc:	00021d07 	0x21d07
 2c0:	07080200 	tgei	$24,512
 2c4:	00000213 	0x213
 2c8:	00033006 	srlv	$6,$3,$0
 2cc:	89040100 	lwl	$4,256($8)
 2d0:	05000000 	bltz	$8,2d4 <__start-0x7ffffd2c>
 2d4:	0017e003 	sra	$28,$23,0x0
 2d8:	65040780 	0x65040780
 2dc:	06000000 	bltz	$16,2e0 <__start-0x7ffffd20>
 2e0:	000002e4 	0x2e4
 2e4:	00890501 	0x890501
 2e8:	03050000 	0x3050000
 2ec:	800017e4 	lb	$0,6116($0)
 2f0:	0002f106 	0x2f106
 2f4:	89060100 	lwl	$6,256($8)
 2f8:	05000000 	bltz	$8,2fc <__start-0x7ffffd04>
 2fc:	0017e803 	sra	$29,$23,0x0
 300:	02ec0880 	0x2ec0880
 304:	50010000 	beql	$0,$1,308 <__start-0x7ffffcf8>
 308:	800009c4 	lb	$0,2500($0)
 30c:	0000004c 	syscall	0x1
 310:	00d59c01 	0xd59c01
 314:	65090000 	0x65090000
 318:	01006370 	tge	$8,$0,0x18d
 31c:	00005a50 	0x5a50
 320:	00910200 	0x910200
 324:	031b0a00 	0x31b0a00
 328:	41010000 	bc0t	32c <__start-0x7ffffcd4>
 32c:	80000988 	lb	$0,2440($0)
 330:	0000003c 	0x3c
 334:	38089c01 	xori	$8,$0,0x9c01
 338:	01000003 	0x1000003
 33c:	0008942c 	0x8942c
 340:	0000f480 	sll	$30,$0,0x12
 344:	249c0100 	addiu	$28,$4,256
 348:	09000001 	j	4000004 <__start-0x7bfffffc>
 34c:	006d756e 	0x6d756e
 350:	005a2c01 	0x5a2c01
 354:	91020000 	lbu	$2,0($8)
 358:	00690b00 	0x690b00
 35c:	00332e01 	0x332e01
 360:	91020000 	lbu	$2,0($8)
 364:	03000c70 	tge	$24,$0,0x31
 368:	2e010000 	sltiu	$1,$16,0
 36c:	00000033 	tltu	$0,$0
 370:	00749102 	0x749102
 374:	00032b08 	0x32b08
 378:	24230100 	addiu	$3,$1,256
 37c:	70800008 	0x70800008
 380:	01000000 	0x1000000
 384:	0001469c 	0x1469c
 388:	00730900 	0x730900
 38c:	01462301 	0x1462301
 390:	91020000 	lbu	$2,0($8)
 394:	04070000 	0x4070000
 398:	00000153 	0x153
 39c:	29060102 	slti	$6,$8,258
 3a0:	0d000001 	jal	4000004 <__start-0x7bfffffc>
 3a4:	0000014c 	syscall	0x5
 3a8:	0003140e 	0x3140e
 3ac:	5a160100 	0x5a160100
 3b0:	70000000 	madd	$0,$0
 3b4:	b4800007 	0xb4800007
 3b8:	01000000 	0x1000000
 3bc:	0001809c 	0x1809c
 3c0:	656c0b00 	0x656c0b00
 3c4:	1801006e 	0x1801006e
 3c8:	0000005a 	0x5a
 3cc:	00709102 	0x709102
 3d0:	0002fb0f 	0x2fb0f
 3d4:	410f0100 	0x410f0100
 3d8:	18000000 	blez	$0,3dc <__start-0x7ffffc24>
 3dc:	58800007 	blezl	$4,3fc <__start-0x7ffffc04>
 3e0:	01000000 	0x1000000
 3e4:	0326109c 	0x326109c
 3e8:	08010000 	j	40000 <__start-0x7ffc0000>
 3ec:	800006b4 	lb	$0,1716($0)
 3f0:	00000064 	0x64
 3f4:	63099c01 	0x63099c01
 3f8:	08010068 	j	401a0 <__start-0x7ffbfe60>
 3fc:	0000014c 	syscall	0x5
 400:	00009102 	srl	$18,$0,0x4
 404:	00046600 	sll	$12,$4,0x18
 408:	ba000400 	swr	$0,1024($16)
 40c:	04000001 	bltz	$0,414 <__start-0x7ffffbec>
 410:	00003e01 	0x3e01
 414:	04230400 	bgezl	$1,1418 <__start-0x7fffebe8>
 418:	016e0000 	0x16e0000
 41c:	00680000 	0x680000
 420:	00000000 	sll	$0,$0,0x0
 424:	02080000 	0x2080000
 428:	01020000 	0x1020000
 42c:	00012206 	0x12206
 430:	05020200 	bltzl	$8,c34 <__start-0x7ffff3cc>
 434:	00000281 	0x281
 438:	69050403 	0x69050403
 43c:	0200746e 	0x200746e
 440:	02460508 	0x2460508
 444:	2a040000 	slti	$4,$16,0
 448:	02000002 	0x2000002
 44c:	0000512e 	0x512e
 450:	00410500 	0x410500
 454:	01020000 	0x1020000
 458:	00012008 	0x12008
 45c:	029c0400 	0x29c0400
 460:	31020000 	andi	$2,$8,0x0
 464:	00000063 	0x63
 468:	3f070202 	0x3f070202
 46c:	04000001 	bltz	$0,474 <__start-0x7ffffb8c>
 470:	000002a5 	0x2a5
 474:	00753402 	0x753402
 478:	04020000 	bltzl	$0,47c <__start-0x7ffffb84>
 47c:	00021d07 	0x21d07
 480:	07080200 	tgei	$24,512
 484:	00000213 	0x213
 488:	00002304 	0x2304
 48c:	8e060300 	lw	$6,768($16)
 490:	02000000 	0x2000000
 494:	02180704 	0x2180704
 498:	bc060000 	cache	0x6,0($0)
 49c:	01000003 	0x1000003
 4a0:	00048860 	0x48860
 4a4:	0000bf00 	sll	$23,$0,0x1c
 4a8:	00113800 	sll	$7,$17,0x0
 4ac:	00006c80 	sll	$13,$0,0x12
 4b0:	bf9c0100 	cache	0x1c,256($28)
 4b4:	07000000 	bltz	$24,4b8 <__start-0x7ffffb48>
 4b8:	60010078 	0x60010078
 4bc:	00000033 	tltu	$0,$0
 4c0:	00009102 	srl	$18,$0,0x4
 4c4:	29060102 	slti	$6,$8,258
 4c8:	05000001 	bltz	$8,4d0 <__start-0x7ffffb30>
 4cc:	000000bf 	0xbf
 4d0:	6e696d08 	0x6e696d08
 4d4:	1a5b0100 	0x1a5b0100
 4d8:	75000004 	jalx	4000010 <__start-0x7bfffff0>
 4dc:	ec000000 	swc3	$0,0($0)
 4e0:	4c800010 	0x4c800010
 4e4:	01000000 	0x1000000
 4e8:	0001019c 	0x1019c
 4ec:	00780700 	0x780700
 4f0:	00755b01 	0x755b01
 4f4:	91020000 	lbu	$2,0($8)
 4f8:	00790700 	0x790700
 4fc:	00755b01 	0x755b01
 500:	91020000 	lbu	$2,0($8)
 504:	80090004 	lb	$9,4($0)
 508:	01000003 	0x1000003
 50c:	0003ad54 	0x3ad54
 510:	00106800 	sll	$13,$16,0x0
 514:	00008480 	sll	$16,$0,0x12
 518:	619c0100 	0x619c0100
 51c:	07000001 	bltz	$24,524 <__start-0x7ffffadc>
 520:	00747364 	0x747364
 524:	01615401 	0x1615401
 528:	91020000 	lbu	$2,0($8)
 52c:	72730700 	0x72730700
 530:	54010063 	bnel	$0,$1,6c0 <__start-0x7ffff940>
 534:	00000161 	0x161
 538:	07049102 	0x7049102
 53c:	006e656c 	0x6e656c
 540:	00835401 	0x835401
 544:	91020000 	lbu	$2,0($8)
 548:	04780a08 	0x4780a08
 54c:	56010000 	bnel	$16,$1,550 <__start-0x7ffffab0>
 550:	00000163 	0x163
 554:	0a709102 	j	9c24408 <__start-0x763dbbf8>
 558:	00000461 	0x461
 55c:	01635601 	0x1635601
 560:	91020000 	lbu	$2,0($8)
 564:	040b0074 	tltiu	$0,116
 568:	00bf040c 	syscall	0x2fc10
 56c:	a6090000 	sh	$9,0($16)
 570:	01000003 	0x1000003
 574:	0003514d 	break	0x3,0x145
 578:	000ff400 	sll	$30,$15,0x10
 57c:	00007480 	sll	$14,$0,0x12
 580:	b69c0100 	0xb69c0100
 584:	07000001 	bltz	$24,58c <__start-0x7ffffa74>
 588:	4d010073 	bc3t	758 <__start-0x7ffff8a8>
 58c:	00000161 	0x161
 590:	07009102 	bltz	$24,fffe499c <_bss_end+0x7ffe29ac>
 594:	4d010063 	bc3t	724 <__start-0x7ffff8dc>
 598:	000000bf 	0xbf
 59c:	07049102 	0x7049102
 5a0:	006e656c 	0x6e656c
 5a4:	00834d01 	0x834d01
 5a8:	91020000 	lbu	$2,0($8)
 5ac:	73630d08 	0x73630d08
 5b0:	634f0100 	0x634f0100
 5b4:	02000001 	movf	$0,$16,$fcc0
 5b8:	09007091 	j	401c244 <__start-0x7bfe3dbc>
 5bc:	00000467 	0x467
 5c0:	038d4b01 	0x38d4b01
 5c4:	0fcc0000 	jal	f300000 <__start-0x70d00000>
 5c8:	00288000 	0x288000
 5cc:	9c010000 	0x9c010000
 5d0:	000001dd 	0x1dd
 5d4:	00747307 	0x747307
 5d8:	01dd4b01 	0x1dd4b01
 5dc:	91020000 	lbu	$2,0($8)
 5e0:	040c0000 	teqi	$0,0
 5e4:	000000c6 	0xc6
 5e8:	00036509 	0x36509
 5ec:	45490100 	0x45490100
 5f0:	a0000003 	sb	$0,3($0)
 5f4:	2c80000f 	sltiu	$0,$4,15
 5f8:	01000000 	0x1000000
 5fc:	0002099c 	0x2099c
 600:	00630700 	0x630700
 604:	00bf4901 	0xbf4901
 608:	91020000 	lbu	$2,0($8)
 60c:	5f060000 	0x5f060000
 610:	01000003 	0x1000003
 614:	0003eb44 	0x3eb44
 618:	00005800 	sll	$11,$0,0x0
 61c:	000f4400 	sll	$8,$15,0x10
 620:	00005c80 	sll	$11,$0,0x12
 624:	349c0100 	ori	$28,$4,0x100
 628:	07000002 	bltz	$24,634 <__start-0x7ffff9cc>
 62c:	0100736e 	0x100736e
 630:	00005844 	0x5844
 634:	00910200 	0x910200
 638:	03870600 	0x3870600
 63c:	3f010000 	0x3f010000
 640:	00000450 	0x450
 644:	00000058 	0x58
 648:	80000ee8 	lb	$0,3816($0)
 64c:	0000005c 	0x5c
 650:	025f9c01 	0x25f9c01
 654:	68070000 	0x68070000
 658:	3f010073 	0x3f010073
 65c:	00000058 	0x58
 660:	00009102 	srl	$18,$0,0x4
 664:	00033f06 	0x33f06
 668:	6e3a0100 	0x6e3a0100
 66c:	6a000004 	0x6a000004
 670:	8c000000 	lw	$0,0($0)
 674:	5c80000e 	bgtzl	$4,6b0 <__start-0x7ffff950>
 678:	01000000 	0x1000000
 67c:	00028a9c 	0x28a9c
 680:	6c6e0700 	0x6c6e0700
 684:	6a3a0100 	0x6a3a0100
 688:	02000000 	0x2000000
 68c:	06000091 	bltz	$16,8d4 <__start-0x7ffff72c>
 690:	00000441 	0x441
 694:	047e3501 	0x47e3501
 698:	006a0000 	0x6a0000
 69c:	0e300000 	jal	8c00000 <__start-0x77400000>
 6a0:	005c8000 	0x5c8000
 6a4:	9c010000 	0x9c010000
 6a8:	000002b5 	0x2b5
 6ac:	006c6807 	srav	$13,$12,$3
 6b0:	006a3501 	0x6a3501
 6b4:	91020000 	lbu	$2,0($8)
 6b8:	940e0000 	lhu	$14,0($0)
 6bc:	01000004 	sllv	$0,$0,$8
 6c0:	00040927 	0x40927
 6c4:	00005800 	sll	$11,$0,0x0
 6c8:	000d4c00 	sll	$9,$13,0x10
 6cc:	0000e480 	sll	$28,$0,0x12
 6d0:	0f9c0100 	jal	e700400 <__start-0x718ffc00>
 6d4:	0f000003 	jal	c00000c <__start-0x73fffff4>
 6d8:	0000039a 	0x39a
 6dc:	030f2701 	0x30f2701
 6e0:	91020000 	lbu	$2,0($8)
 6e4:	006e0d00 	0x6e0d00
 6e8:	006a2901 	0x6a2901
 6ec:	91020000 	lbu	$2,0($8)
 6f0:	00780d70 	tge	$3,$24,0x35
 6f4:	006a2b01 	0x6a2b01
 6f8:	91020000 	lbu	$2,0($8)
 6fc:	0d781068 	jal	5e041a0 <__start-0x7a1fbe60>
 700:	005c8000 	0x5c8000
 704:	690d0000 	0x690d0000
 708:	6a2c0100 	0x6a2c0100
 70c:	02000000 	0x2000000
 710:	00006c91 	0x6c91
 714:	0041040c 	syscall	0x10410
 718:	a10e0000 	sb	$14,0($8)
 71c:	01000003 	0x1000003
 720:	00042f22 	0x42f22
 724:	00006a00 	sll	$13,$0,0x8
 728:	000ce000 	sll	$28,$12,0x0
 72c:	00006c80 	sll	$13,$0,0x12
 730:	4f9c0100 	c3	0x19c0100
 734:	0f000003 	jal	c00000c <__start-0x73fffff4>
 738:	00000404 	0x404
 73c:	006a2201 	0x6a2201
 740:	91020000 	lbu	$2,0($8)
 744:	656c0700 	0x656c0700
 748:	2201006e 	addi	$1,$16,110
 74c:	00000033 	tltu	$0,$0
 750:	00049102 	srl	$18,$4,0x4
 754:	00045a11 	0x45a11
 758:	751c0100 	jalx	4700400 <__start-0x7b8ffc00>
 75c:	50000003 	beqzl	$0,76c <__start-0x7ffff894>
 760:	9080000c 	lbu	$0,12($4)
 764:	01000000 	0x1000000
 768:	00038b9c 	0x38b9c
 76c:	00780700 	0x780700
 770:	006a1c01 	0x6a1c01
 774:	91020000 	lbu	$2,0($8)
 778:	0c641000 	jal	1904000 <__start-0x7e6fc000>
 77c:	00608000 	0x608000
 780:	690d0000 	0x690d0000
 784:	331e0100 	andi	$30,$24,0x100
 788:	02000000 	0x2000000
 78c:	00007091 	0x7091
 790:	74756f12 	jalx	1d5bc48 <__start-0x7e2a43b8>
 794:	47160100 	c1	0x1160100
 798:	c4000004 	lwc1	$f0,4($0)
 79c:	8c80000b 	lw	$0,11($4)
 7a0:	01000000 	0x1000000
 7a4:	0003bd9c 	0x3bd9c
 7a8:	00780700 	0x780700
 7ac:	00751601 	0x751601
 7b0:	91020000 	lbu	$2,0($8)
 7b4:	006e0700 	0x6e0700
 7b8:	00331601 	0x331601
 7bc:	91020000 	lbu	$2,0($8)
 7c0:	39060004 	xori	$6,$8,0x4
 7c4:	01000004 	sllv	$0,$0,$8
 7c8:	0003df0e 	0x3df0e
 7cc:	00004100 	sll	$8,$0,0x4
 7d0:	000acc00 	sll	$25,$10,0x10
 7d4:	0000f880 	sll	$31,$0,0x2
 7d8:	e79c0100 	swc1	$f28,256($28)
 7dc:	07000003 	bltz	$24,7ec <__start-0x7ffff814>
 7e0:	0e010062 	jal	8040188 <__start-0x77fbfe78>
 7e4:	00000041 	0x41
 7e8:	00009102 	srl	$18,$0,0x4
 7ec:	0003c409 	0x3c409
 7f0:	ce080100 	pref	0x8,256($16)
 7f4:	64000003 	0x64000003
 7f8:	6880000a 	0x6880000a
 7fc:	01000000 	0x1000000
 800:	0004299c 	0x4299c
 804:	039a0f00 	0x39a0f00
 808:	08010000 	j	40000 <__start-0x7ffc0000>
 80c:	0000030f 	sync	0xc
 810:	0f009102 	jal	c024408 <__start-0x73fdbbf8>
 814:	0000011a 	0x11a
 818:	00830801 	0x830801
 81c:	91020000 	lbu	$2,0($8)
 820:	00780704 	0x780704
 824:	00330801 	0x330801
 828:	91020000 	lbu	$2,0($8)
 82c:	6d060008 	0x6d060008
 830:	01000003 	0x1000003
 834:	0003f503 	sra	$30,$3,0x14
 838:	00003300 	sll	$6,$0,0xc
 83c:	000a1000 	sll	$2,$10,0x0
 840:	00005480 	sll	$10,$0,0x12
 844:	639c0100 	0x639c0100
 848:	0f000004 	jal	c000010 <__start-0x73fffff0>
 84c:	0000039a 	0x39a
 850:	04630301 	bgezl	$3,1458 <__start-0x7fffeba8>
 854:	91020000 	lbu	$2,0($8)
 858:	011a0f00 	0x11a0f00
 85c:	03010000 	0x3010000
 860:	00000083 	sra	$0,$0,0x2
 864:	00049102 	srl	$18,$4,0x4
 868:	004c040c 	syscall	0x13010
 86c:	64000000 	0x64000000
 870:	04000001 	bltz	$0,878 <__start-0x7ffff788>
 874:	0002ef00 	sll	$29,$2,0x1c
 878:	3e010400 	0x3e010400
 87c:	04000000 	bltz	$0,880 <__start-0x7ffff780>
 880:	000004fa 	0x4fa
 884:	0000016e 	0x16e
 888:	00000110 	0x110
 88c:	00000000 	sll	$0,$0,0x0
 890:	0000040e 	0x40e
 894:	22060102 	addi	$6,$16,258
 898:	02000001 	movf	$0,$16,$fcc0
 89c:	02810502 	0x2810502
 8a0:	04030000 	bgezl	$0,8a4 <__start-0x7ffff75c>
 8a4:	746e6905 	jalx	1b9a414 <__start-0x7e465bec>
 8a8:	05080200 	tgei	$8,512
 8ac:	00000246 	0x246
 8b0:	00022a04 	0x22a04
 8b4:	4c2e0200 	0x4c2e0200
 8b8:	02000000 	0x2000000
 8bc:	01200801 	movf	$1,$9,$fcc0
 8c0:	02020000 	0x2020000
 8c4:	00013f07 	0x13f07
 8c8:	07040200 	0x7040200
 8cc:	0000021d 	0x21d
 8d0:	13070802 	beq	$24,$7,28dc <__start-0x7fffd724>
 8d4:	02000002 	0x2000002
 8d8:	02180704 	0x2180704
 8dc:	b4040000 	0xb4040000
 8e0:	03000004 	sllv	$0,$0,$24
 8e4:	00007a04 	0x7a04
 8e8:	00410500 	0x410500
 8ec:	008a0000 	0x8a0000
 8f0:	5a060000 	0x5a060000
 8f4:	05000000 	bltz	$8,8f8 <__start-0x7ffff708>
 8f8:	04e90700 	tgeiu	$7,1792
 8fc:	04050000 	0x4050000
 900:	00000033 	tltu	$0,$0
 904:	00cd0903 	0xcd0903
 908:	08080000 	j	200000 <__start-0x7fe00000>
 90c:	98000005 	lwr	$0,5($0)
 910:	049f0878 	0x49f0878
 914:	78990000 	0x78990000
 918:	00052208 	0x52208
 91c:	08789a00 	j	1e26800 <__start-0x7e1d9800>
 920:	000004be 	0x4be
 924:	5e08789b 	0x5e08789b
 928:	9c000005 	0x9c000005
 92c:	053a0878 	0x53a0878
 930:	789d0000 	0x789d0000
 934:	0004d908 	0x4d908
 938:	00789e00 	0x789e00
 93c:	00004105 	0x4105
 940:	0000de00 	sll	$27,$0,0x18
 944:	005a0900 	0x5a0900
 948:	07ff0000 	0x7ff0000
 94c:	039a0a00 	0x39a0a00
 950:	05010000 	bgez	$8,954 <__start-0x7ffff6ac>
 954:	000000cd 	break	0x0,0x3
 958:	17f00305 	bne	$31,$16,1570 <__start-0x7fffea90>
 95c:	030b8000 	0x30b8000
 960:	01000005 	0x1000005
 964:	00003307 	0x3307
 968:	0011a400 	sll	$20,$17,0x10
 96c:	00018080 	sll	$16,$1,0x2
 970:	0c9c0100 	jal	2700400 <__start-0x7d8ffc00>
 974:	00000550 	0x550
 978:	00330901 	0x330901
 97c:	91020000 	lbu	$2,0($8)
 980:	00f80d5c 	0xf80d5c
 984:	370c0000 	ori	$12,$24,0x0
 988:	01000001 	movf	$0,$8,$fcc0
 98c:	00006f0c 	syscall	0x1bc
 990:	64910200 	0x64910200
 994:	00020b0c 	syscall	0x82c
 998:	6f0d0100 	0x6f0d0100
 99c:	02000000 	0x2000000
 9a0:	170c6c91 	bne	$24,$12,1bbe8 <__start-0x7ffe4418>
 9a4:	01000001 	movf	$0,$8,$fcc0
 9a8:	0000330e 	0x330e
 9ac:	74910200 	jalx	2440800 <__start-0x7dbbf800>
 9b0:	7365720e 	0x7365720e
 9b4:	330f0100 	andi	$15,$24,0x100
 9b8:	02000000 	0x2000000
 9bc:	440f6091 	0x440f6091
 9c0:	b0800012 	0xb0800012
 9c4:	0e000000 	jal	8000000 <__start-0x78000000>
 9c8:	24010069 	addiu	$1,$0,105
 9cc:	00000033 	tltu	$0,$0
 9d0:	00589102 	0x589102
 9d4:	Address 0x00000000000009d4 is out of bounds.


Disassembly of section .debug_abbrev:

00000000 <.debug_abbrev>:
   0:	25011101 	addiu	$1,$8,4353
   4:	030b130e 	0x30b130e
   8:	550e1b0e 	bnel	$8,$14,6c44 <__start-0x7fff93bc>
   c:	10011117 	beq	$0,$1,446c <__start-0x7fffbb94>
  10:	02000017 	0x2000017
  14:	0b0b0024 	j	c2c0090 <__start-0x73d3ff70>
  18:	0e030b3e 	jal	80c2cf8 <__start-0x77f3d308>
  1c:	24030000 	addiu	$3,$0,0
  20:	3e0b0b00 	0x3e0b0b00
  24:	0008030b 	0x8030b
  28:	00160400 	sll	$0,$22,0x10
  2c:	0b3a0e03 	j	ce8380c <__start-0x7317c7f4>
  30:	13490b3b 	beq	$26,$9,2d20 <__start-0x7fffd2e0>
  34:	26050000 	addiu	$5,$16,0
  38:	00134900 	sll	$9,$19,0x4
  3c:	00350600 	0x350600
  40:	00001349 	0x1349
  44:	03003407 	0x3003407
  48:	3b0b3a0e 	xori	$11,$24,0x3a0e
  4c:	0213490b 	0x213490b
  50:	08000018 	j	60 <__start-0x7fffffa0>
  54:	193f012e 	0x193f012e
  58:	0b3a0e03 	j	ce8380c <__start-0x7317c7f4>
  5c:	13490b3b 	beq	$26,$9,2d4c <__start-0x7fffd2b4>
  60:	06120111 	bltzall	$16,4a8 <__start-0x7ffffb58>
  64:	42971840 	c0	0x971840
  68:	00130119 	0x130119
  6c:	00050900 	sll	$1,$5,0x4
  70:	0b3a0e03 	j	ce8380c <__start-0x7317c7f4>
  74:	13490b3b 	beq	$26,$9,2d64 <__start-0x7fffd29c>
  78:	00001802 	srl	$3,$0,0x0
  7c:	0b000f0a 	j	c003c28 <__start-0x73ffc3d8>
  80:	0013490b 	0x13490b
  84:	012e0b00 	0x12e0b00
  88:	0e03193f 	jal	80c64fc <__start-0x77f39b04>
  8c:	0b3b0b3a 	j	cec2ce8 <__start-0x7313d318>
  90:	01111349 	0x1111349
  94:	18400612 	blez	$2,18e0 <__start-0x7fffe720>
  98:	01194296 	0x1194296
  9c:	0c000013 	jal	4c <__start-0x7fffffb4>
  a0:	193f002e 	0x193f002e
  a4:	0b3a0e03 	j	ce8380c <__start-0x7317c7f4>
  a8:	13490b3b 	beq	$26,$9,2d98 <__start-0x7fffd268>
  ac:	06120111 	bltzall	$16,4f4 <__start-0x7ffffb0c>
  b0:	42971840 	c0	0x971840
  b4:	00000019 	multu	$0,$0
  b8:	25011101 	addiu	$1,$8,4353
  bc:	030b130e 	0x30b130e
  c0:	550e1b0e 	bnel	$8,$14,6cfc <__start-0x7fff9304>
  c4:	10011117 	beq	$0,$1,4524 <__start-0x7fffbadc>
  c8:	02000017 	0x2000017
  cc:	0b0b0024 	j	c2c0090 <__start-0x73d3ff70>
  d0:	0e030b3e 	jal	80c2cf8 <__start-0x77f3d308>
  d4:	24030000 	addiu	$3,$0,0
  d8:	3e0b0b00 	0x3e0b0b00
  dc:	0008030b 	0x8030b
  e0:	00160400 	sll	$0,$22,0x10
  e4:	0b3a0e03 	j	ce8380c <__start-0x7317c7f4>
  e8:	13490b3b 	beq	$26,$9,2dd8 <__start-0x7fffd228>
  ec:	35050000 	ori	$5,$8,0x0
  f0:	00134900 	sll	$9,$19,0x4
  f4:	00340600 	0x340600
  f8:	0b3a0e03 	j	ce8380c <__start-0x7317c7f4>
  fc:	13490b3b 	beq	$26,$9,2dec <__start-0x7fffd214>
 100:	1802193f 	0x1802193f
 104:	0f070000 	jal	c1c0000 <__start-0x73e40000>
 108:	490b0b00 	bc2tl	$cc2,2d0c <__start-0x7fffd2f4>
 10c:	08000013 	j	4c <__start-0x7fffffb4>
 110:	193f012e 	0x193f012e
 114:	0b3a0e03 	j	ce8380c <__start-0x7317c7f4>
 118:	01110b3b 	0x1110b3b
 11c:	18400612 	blez	$2,1968 <__start-0x7fffe698>
 120:	01194296 	0x1194296
 124:	09000013 	j	400004c <__start-0x7bffffb4>
 128:	08030005 	j	c0014 <__start-0x7ff3ffec>
 12c:	0b3b0b3a 	j	cec2ce8 <__start-0x7313d318>
 130:	18021349 	0x18021349
 134:	2e0a0000 	sltiu	$10,$16,0
 138:	03193f00 	0x3193f00
 13c:	3b0b3a0e 	xori	$11,$24,0x3a0e
 140:	1201110b 	beq	$16,$1,4570 <__start-0x7fffba90>
 144:	96184006 	lhu	$24,16390($16)
 148:	00001942 	srl	$3,$0,0x5
 14c:	0300340b 	0x300340b
 150:	3b0b3a08 	xori	$11,$24,0x3a08
 154:	0213490b 	0x213490b
 158:	0c000018 	jal	60 <__start-0x7fffffa0>
 15c:	0e030034 	jal	80c00d0 <__start-0x77f3ff30>
 160:	0b3b0b3a 	j	cec2ce8 <__start-0x7313d318>
 164:	18021349 	0x18021349
 168:	260d0000 	addiu	$13,$16,0
 16c:	00134900 	sll	$9,$19,0x4
 170:	012e0e00 	0x12e0e00
 174:	0e03193f 	jal	80c64fc <__start-0x77f39b04>
 178:	0b3b0b3a 	j	cec2ce8 <__start-0x7313d318>
 17c:	01111349 	0x1111349
 180:	18400612 	blez	$2,19cc <__start-0x7fffe634>
 184:	01194296 	0x1194296
 188:	0f000013 	jal	c00004c <__start-0x73ffffb4>
 18c:	193f002e 	0x193f002e
 190:	0b3a0e03 	j	ce8380c <__start-0x7317c7f4>
 194:	13490b3b 	beq	$26,$9,2e84 <__start-0x7fffd17c>
 198:	06120111 	bltzall	$16,5e0 <__start-0x7ffffa20>
 19c:	42971840 	c0	0x971840
 1a0:	10000019 	beqz	$0,208 <__start-0x7ffffdf8>
 1a4:	193f012e 	0x193f012e
 1a8:	0b3a0e03 	j	ce8380c <__start-0x7317c7f4>
 1ac:	01110b3b 	0x1110b3b
 1b0:	18400612 	blez	$2,19fc <__start-0x7fffe604>
 1b4:	00194297 	0x194297
 1b8:	11010000 	beq	$8,$1,1bc <__start-0x7ffffe44>
 1bc:	130e2501 	beq	$24,$14,95c4 <__start-0x7fff6a3c>
 1c0:	1b0e030b 	0x1b0e030b
 1c4:	1117550e 	beq	$8,$23,15600 <__start-0x7ffeaa00>
 1c8:	00171001 	0x171001
 1cc:	00240200 	0x240200
 1d0:	0b3e0b0b 	j	cf82c2c <__start-0x7307d3d4>
 1d4:	00000e03 	sra	$1,$0,0x18
 1d8:	0b002403 	j	c00900c <__start-0x73ff6ff4>
 1dc:	030b3e0b 	0x30b3e0b
 1e0:	04000008 	bltz	$0,204 <__start-0x7ffffdfc>
 1e4:	0e030016 	jal	80c0058 <__start-0x77f3ffa8>
 1e8:	0b3b0b3a 	j	cec2ce8 <__start-0x7313d318>
 1ec:	00001349 	0x1349
 1f0:	49002605 	bc2f	9a08 <__start-0x7fff65f8>
 1f4:	06000013 	bltz	$16,244 <__start-0x7ffffdbc>
 1f8:	193f012e 	0x193f012e
 1fc:	0b3a0e03 	j	ce8380c <__start-0x7317c7f4>
 200:	0e6e0b3b 	jal	9b82cec <__start-0x7647d314>
 204:	01111349 	0x1111349
 208:	18400612 	blez	$2,1a54 <__start-0x7fffe5ac>
 20c:	01194297 	0x1194297
 210:	07000013 	bltz	$24,260 <__start-0x7ffffda0>
 214:	08030005 	j	c0014 <__start-0x7ff3ffec>
 218:	0b3b0b3a 	j	cec2ce8 <__start-0x7313d318>
 21c:	18021349 	0x18021349
 220:	2e080000 	sltiu	$8,$16,0
 224:	03193f01 	0x3193f01
 228:	3b0b3a08 	xori	$11,$24,0x3a08
 22c:	490e6e0b 	bc2fl	$cc3,1ba5c <__start-0x7ffe45a4>
 230:	12011113 	beq	$16,$1,4680 <__start-0x7fffb980>
 234:	97184006 	lhu	$24,16390($24)
 238:	13011942 	beq	$24,$1,6744 <__start-0x7fff98bc>
 23c:	2e090000 	sltiu	$9,$16,0
 240:	03193f01 	0x3193f01
 244:	3b0b3a0e 	xori	$11,$24,0x3a0e
 248:	110e6e0b 	beq	$8,$14,1ba78 <__start-0x7ffe4588>
 24c:	40061201 	0x40061201
 250:	19429718 	0x19429718
 254:	00001301 	0x1301
 258:	0300340a 	0x300340a
 25c:	3b0b3a0e 	xori	$11,$24,0x3a0e
 260:	0213490b 	0x213490b
 264:	0b000018 	j	c000060 <__start-0x73ffffa0>
 268:	0b0b000f 	j	c2c003c <__start-0x73d3ffc4>
 26c:	0f0c0000 	jal	c300000 <__start-0x73d00000>
 270:	490b0b00 	bc2tl	$cc2,2e74 <__start-0x7fffd18c>
 274:	0d000013 	jal	400004c <__start-0x7bffffb4>
 278:	08030034 	j	c00d0 <__start-0x7ff3ff30>
 27c:	0b3b0b3a 	j	cec2ce8 <__start-0x7313d318>
 280:	18021349 	0x18021349
 284:	2e0e0000 	sltiu	$14,$16,0
 288:	03193f01 	0x3193f01
 28c:	3b0b3a0e 	xori	$11,$24,0x3a0e
 290:	490e6e0b 	bc2fl	$cc3,1bac0 <__start-0x7ffe4540>
 294:	12011113 	beq	$16,$1,46e4 <__start-0x7fffb91c>
 298:	96184006 	lhu	$24,16390($16)
 29c:	13011942 	beq	$24,$1,67a8 <__start-0x7fff9858>
 2a0:	050f0000 	0x50f0000
 2a4:	3a0e0300 	xori	$14,$16,0x300
 2a8:	490b3b0b 	bc2tl	$cc2,eed8 <__start-0x7fff1128>
 2ac:	00180213 	0x180213
 2b0:	010b1000 	0x10b1000
 2b4:	06120111 	bltzall	$16,6fc <__start-0x7ffff904>
 2b8:	2e110000 	sltiu	$17,$16,0
 2bc:	03193f01 	0x3193f01
 2c0:	3b0b3a0e 	xori	$11,$24,0x3a0e
 2c4:	110e6e0b 	beq	$8,$14,1baf4 <__start-0x7ffe450c>
 2c8:	40061201 	0x40061201
 2cc:	19429618 	0x19429618
 2d0:	00001301 	0x1301
 2d4:	3f012e12 	0x3f012e12
 2d8:	3a080319 	xori	$8,$16,0x319
 2dc:	6e0b3b0b 	0x6e0b3b0b
 2e0:	1201110e 	beq	$16,$1,471c <__start-0x7fffb8e4>
 2e4:	96184006 	lhu	$24,16390($16)
 2e8:	13011942 	beq	$24,$1,67f4 <__start-0x7fff980c>
 2ec:	01000000 	0x1000000
 2f0:	0e250111 	jal	8940444 <__start-0x776bfbbc>
 2f4:	0e030b13 	jal	80c2c4c <__start-0x77f3d3b4>
 2f8:	17550e1b 	bne	$26,$21,3b68 <__start-0x7fffc498>
 2fc:	17100111 	bne	$24,$16,744 <__start-0x7ffff8bc>
 300:	24020000 	addiu	$2,$0,0
 304:	3e0b0b00 	0x3e0b0b00
 308:	000e030b 	0xe030b
 30c:	00240300 	0x240300
 310:	0b3e0b0b 	j	cf82c2c <__start-0x7307d3d4>
 314:	00000803 	sra	$1,$0,0x0
 318:	03001604 	0x3001604
 31c:	3b0b3a0e 	xori	$11,$24,0x3a0e
 320:	0013490b 	0x13490b
 324:	01010500 	0x1010500
 328:	13011349 	beq	$24,$1,5050 <__start-0x7fffafb0>
 32c:	21060000 	addi	$6,$8,0
 330:	2f134900 	sltiu	$19,$24,18688
 334:	0700000b 	bltz	$24,364 <__start-0x7ffffc9c>
 338:	0e030104 	jal	80c0410 <__start-0x77f3fbf0>
 33c:	0b0b0b3e 	j	c2c2cf8 <__start-0x73d3d308>
 340:	0b3a1349 	j	ce84d24 <__start-0x7317b2dc>
 344:	13010b3b 	beq	$24,$1,3034 <__start-0x7fffcfcc>
 348:	28080000 	slti	$8,$0,0
 34c:	1c0e0300 	0x1c0e0300
 350:	0900000d 	j	4000034 <__start-0x7bffffcc>
 354:	13490021 	beq	$26,$9,3dc <__start-0x7ffffc24>
 358:	0000052f 	0x52f
 35c:	0300340a 	0x300340a
 360:	3b0b3a0e 	xori	$11,$24,0x3a0e
 364:	3f13490b 	0x3f13490b
 368:	00180219 	0x180219
 36c:	012e0b00 	0x12e0b00
 370:	0e03193f 	jal	80c64fc <__start-0x77f39b04>
 374:	0b3b0b3a 	j	cec2ce8 <__start-0x7313d318>
 378:	01111349 	0x1111349
 37c:	18400612 	blez	$2,1bc8 <__start-0x7fffe438>
 380:	00194296 	0x194296
 384:	00340c00 	0x340c00
 388:	0b3a0e03 	j	ce8380c <__start-0x7317c7f4>
 38c:	13490b3b 	beq	$26,$9,307c <__start-0x7fffcf84>
 390:	00001802 	srl	$3,$0,0x0
 394:	55010b0d 	bnel	$8,$1,2fcc <__start-0x7fffd034>
 398:	0e000017 	jal	800005c <__start-0x77ffffa4>
 39c:	08030034 	j	c00d0 <__start-0x7ff3ff30>
 3a0:	0b3b0b3a 	j	cec2ce8 <__start-0x7313d318>
 3a4:	18021349 	0x18021349
 3a8:	0b0f0000 	j	c3c0000 <__start-0x73c40000>
 3ac:	12011101 	beq	$16,$1,47b4 <__start-0x7fffb84c>
 3b0:	00000006 	srlv	$0,$0,$0

Disassembly of section .debug_aranges:

00000000 <.debug_aranges>:
   0:	00000034 	teq	$0,$0
   4:	00000002 	srl	$0,$0,0x0
   8:	00040000 	sll	$0,$4,0x0
   c:	00000000 	sll	$0,$0,0x0
  10:	80000398 	lb	$0,920($0)
  14:	00000028 	0x28
  18:	800003c0 	lb	$0,960($0)
  1c:	00000028 	0x28
  20:	800003e8 	lb	$0,1000($0)
  24:	000001dc 	0x1dc
  28:	800005c4 	lb	$0,1476($0)
  2c:	000000f0 	tge	$0,$0,0x3
	...
  38:	0000004c 	syscall	0x1
  3c:	02500002 	0x2500002
  40:	00040000 	sll	$0,$4,0x0
  44:	00000000 	sll	$0,$0,0x0
  48:	800006b4 	lb	$0,1716($0)
  4c:	00000064 	0x64
  50:	80000718 	lb	$0,1816($0)
  54:	00000058 	0x58
  58:	80000770 	lb	$0,1904($0)
  5c:	000000b4 	teq	$0,$0,0x2
  60:	80000824 	lb	$0,2084($0)
  64:	00000070 	tge	$0,$0,0x1
  68:	80000894 	lb	$0,2196($0)
  6c:	000000f4 	teq	$0,$0,0x3
  70:	80000988 	lb	$0,2440($0)
  74:	0000003c 	0x3c
  78:	800009c4 	lb	$0,2500($0)
  7c:	0000004c 	syscall	0x1
	...
  88:	0000009c 	0x9c
  8c:	04050002 	0x4050002
  90:	00040000 	sll	$0,$4,0x0
  94:	00000000 	sll	$0,$0,0x0
  98:	80000a10 	lb	$0,2576($0)
  9c:	00000054 	0x54
  a0:	80000a64 	lb	$0,2660($0)
  a4:	00000068 	0x68
  a8:	80000acc 	lb	$0,2764($0)
  ac:	000000f8 	0xf8
  b0:	80000bc4 	lb	$0,3012($0)
  b4:	0000008c 	syscall	0x2
  b8:	80000c50 	lb	$0,3152($0)
  bc:	00000090 	0x90
  c0:	80000ce0 	lb	$0,3296($0)
  c4:	0000006c 	0x6c
  c8:	80000d4c 	lb	$0,3404($0)
  cc:	000000e4 	0xe4
  d0:	80000e30 	lb	$0,3632($0)
  d4:	0000005c 	0x5c
  d8:	80000e8c 	lb	$0,3724($0)
  dc:	0000005c 	0x5c
  e0:	80000ee8 	lb	$0,3816($0)
  e4:	0000005c 	0x5c
  e8:	80000f44 	lb	$0,3908($0)
  ec:	0000005c 	0x5c
  f0:	80000fa0 	lb	$0,4000($0)
  f4:	0000002c 	0x2c
  f8:	80000fcc 	lb	$0,4044($0)
  fc:	00000028 	0x28
 100:	80000ff4 	lb	$0,4084($0)
 104:	00000074 	teq	$0,$0,0x1
 108:	80001068 	lb	$0,4200($0)
 10c:	00000084 	0x84
 110:	800010ec 	lb	$0,4332($0)
 114:	0000004c 	syscall	0x1
 118:	80001138 	lb	$0,4408($0)
 11c:	0000006c 	0x6c
	...
 128:	0000001c 	0x1c
 12c:	086f0002 	j	1bc0008 <__start-0x7e43fff8>
 130:	00040000 	sll	$0,$4,0x0
 134:	00000000 	sll	$0,$0,0x0
 138:	800011a4 	lb	$0,4516($0)
 13c:	00000180 	sll	$0,$0,0x6
	...

Disassembly of section .debug_ranges:

00000000 <.debug_ranges>:
   0:	80000398 	lb	$0,920($0)
   4:	800003c0 	lb	$0,960($0)
   8:	800003c0 	lb	$0,960($0)
   c:	800003e8 	lb	$0,1000($0)
  10:	800003e8 	lb	$0,1000($0)
  14:	800005c4 	lb	$0,1476($0)
  18:	800005c4 	lb	$0,1476($0)
  1c:	800006b4 	lb	$0,1716($0)
	...
  28:	800006b4 	lb	$0,1716($0)
  2c:	80000718 	lb	$0,1816($0)
  30:	80000718 	lb	$0,1816($0)
  34:	80000770 	lb	$0,1904($0)
  38:	80000770 	lb	$0,1904($0)
  3c:	80000824 	lb	$0,2084($0)
  40:	80000824 	lb	$0,2084($0)
  44:	80000894 	lb	$0,2196($0)
  48:	80000894 	lb	$0,2196($0)
  4c:	80000988 	lb	$0,2440($0)
  50:	80000988 	lb	$0,2440($0)
  54:	800009c4 	lb	$0,2500($0)
  58:	800009c4 	lb	$0,2500($0)
  5c:	80000a10 	lb	$0,2576($0)
	...
  68:	80000a10 	lb	$0,2576($0)
  6c:	80000a64 	lb	$0,2660($0)
  70:	80000a64 	lb	$0,2660($0)
  74:	80000acc 	lb	$0,2764($0)
  78:	80000acc 	lb	$0,2764($0)
  7c:	80000bc4 	lb	$0,3012($0)
  80:	80000bc4 	lb	$0,3012($0)
  84:	80000c50 	lb	$0,3152($0)
  88:	80000c50 	lb	$0,3152($0)
  8c:	80000ce0 	lb	$0,3296($0)
  90:	80000ce0 	lb	$0,3296($0)
  94:	80000d4c 	lb	$0,3404($0)
  98:	80000d4c 	lb	$0,3404($0)
  9c:	80000e30 	lb	$0,3632($0)
  a0:	80000e30 	lb	$0,3632($0)
  a4:	80000e8c 	lb	$0,3724($0)
  a8:	80000e8c 	lb	$0,3724($0)
  ac:	80000ee8 	lb	$0,3816($0)
  b0:	80000ee8 	lb	$0,3816($0)
  b4:	80000f44 	lb	$0,3908($0)
  b8:	80000f44 	lb	$0,3908($0)
  bc:	80000fa0 	lb	$0,4000($0)
  c0:	80000fa0 	lb	$0,4000($0)
  c4:	80000fcc 	lb	$0,4044($0)
  c8:	80000fcc 	lb	$0,4044($0)
  cc:	80000ff4 	lb	$0,4084($0)
  d0:	80000ff4 	lb	$0,4084($0)
  d4:	80001068 	lb	$0,4200($0)
  d8:	80001068 	lb	$0,4200($0)
  dc:	800010ec 	lb	$0,4332($0)
  e0:	800010ec 	lb	$0,4332($0)
  e4:	80001138 	lb	$0,4408($0)
  e8:	80001138 	lb	$0,4408($0)
  ec:	800011a4 	lb	$0,4516($0)
	...
  f8:	800011b8 	lb	$0,4536($0)
  fc:	80001208 	lb	$0,4616($0)
 100:	80001210 	lb	$0,4624($0)
 104:	80001304 	lb	$0,4868($0)
	...
 110:	800011a4 	lb	$0,4516($0)
 114:	80001324 	lb	$0,4900($0)
	...

Disassembly of section .debug_line:

00000000 <.debug_line>:
   0:	000000e9 	0xe9
   4:	00760002 	0x760002
   8:	01010000 	0x1010000
   c:	000d0efb 	0xd0efb
  10:	01010101 	0x1010101
  14:	01000000 	0x1000000
  18:	2f010000 	sltiu	$1,$24,0
  1c:	2f727375 	sltiu	$18,$27,29557
  20:	2f62696c 	sltiu	$2,$27,26988
  24:	2d636367 	sltiu	$3,$11,25447
  28:	736f7263 	0x736f7263
  2c:	696d2f73 	0x696d2f73
  30:	6c2d7370 	0x6c2d7370
  34:	78756e69 	0x78756e69
  38:	756e672d 	jalx	5b99cb4 <__start-0x7a46634c>
  3c:	692f372f 	0x692f372f
  40:	756c636e 	jalx	5b18db8 <__start-0x7a4e7248>
  44:	00006564 	0x6564
  48:	685f6174 	0x685f6174
  4c:	632e6c61 	0x632e6c61
  50:	00007070 	tge	$0,$0,0x1c1
  54:	74730000 	jalx	1cc0000 <__start-0x7e340000>
  58:	746e6964 	jalx	1b9a590 <__start-0x7e465a70>
  5c:	6363672d 	0x6363672d
  60:	0100682e 	0x100682e
  64:	74750000 	jalx	1d40000 <__start-0x7e2c0000>
  68:	74696c69 	jalx	1a5b1a4 <__start-0x7e5a4e5c>
  6c:	00682e79 	0x682e79
  70:	74000000 	jalx	0 <__start-0x80000000>
  74:	61685f61 	0x61685f61
  78:	00682e6c 	0x682e6c
  7c:	00000000 	sll	$0,$0,0x0
  80:	98020500 	lwr	$2,1280($0)
  84:	03800003 	0x3800003
  88:	4bf30109 	c2	0x1f30109
  8c:	01001402 	0x1001402
  90:	02050001 	movt	$0,$16,$fcc1
  94:	800003c0 	lb	$0,960($0)
  98:	bb010e03 	swr	$1,3587($24)
  9c:	00140283 	sra	$0,$20,0xa
  a0:	05000101 	bltz	$8,4a8 <__start-0x7ffffb58>
  a4:	0003e802 	srl	$29,$3,0x0
  a8:	01150380 	0x1150380
  ac:	bb142802 	swr	$20,10242($24)
  b0:	08e508f4 	j	39423d0 <__start-0x7c6bdc30>
  b4:	137402e7 	beq	$27,$20,c54 <__start-0x7ffff3ac>
  b8:	85e208bb 	lh	$2,2235($15)
  bc:	1524024c 	bne	$9,$4,9f0 <__start-0x7ffff610>
  c0:	f33d08f3 	0xf33d08f3
  c4:	75083d08 	jalx	420f420 <__start-0x7bdf0be0>
  c8:	00200283 	0x200283
  cc:	05000101 	bltz	$8,4d4 <__start-0x7ffffb2c>
  d0:	0005c402 	srl	$24,$5,0x10
  d4:	01300380 	0x1300380
  d8:	e508ad08 	swc1	$f8,-21240($8)
  dc:	08132402 	j	4c9008 <__start-0x7fb36ff8>
  e0:	bdbbbbe5 	cache	0x1b,-17435($13)
  e4:	f34ce508 	0xf34ce508
  e8:	01001802 	0x1001802
  ec:	00011701 	0x11701
  f0:	61000200 	0x61000200
  f4:	01000000 	0x1000000
  f8:	0d0efb01 	jal	43bec04 <__start-0x7bc413fc>
  fc:	01010100 	0x1010100
 100:	00000001 	movf	$0,$0,$fcc0
 104:	01000001 	movf	$0,$8,$fcc0
 108:	7273752f 	0x7273752f
 10c:	62696c2f 	0x62696c2f
 110:	6363672f 	0x6363672f
 114:	6f72632d 	0x6f72632d
 118:	6d2f7373 	0x6d2f7373
 11c:	2d737069 	sltiu	$19,$11,28777
 120:	756e696c 	jalx	5b9a5b0 <__start-0x7a465a50>
 124:	6e672d78 	0x6e672d78
 128:	2f372f75 	sltiu	$23,$25,12149
 12c:	6c636e69 	0x6c636e69
 130:	00656475 	0x656475
 134:	6f6f6200 	0x6f6f6200
 138:	616f6c74 	0x616f6c74
 13c:	2e726564 	sltiu	$18,$19,25956
 140:	00707063 	0x707063
 144:	73000000 	madd	$24,$0
 148:	6e696474 	0x6e696474
 14c:	63672d74 	0x63672d74
 150:	00682e63 	0x682e63
 154:	00000001 	movf	$0,$0,$fcc0
 158:	b4020500 	0xb4020500
 15c:	1a800006 	blez	$20,178 <__start-0x7ffffe88>
 160:	28023d08 	slti	$2,$0,15624
 164:	1802f314 	0x1802f314
 168:	00010100 	sll	$0,$1,0x4
 16c:	07180205 	0x7180205
 170:	0f038000 	jal	c0e0000 <__start-0x73f20000>
 174:	2802bb01 	slti	$2,$0,-17663
 178:	1402f314 	bne	$0,$2,ffffcdcc <_bss_end+0x7fffaddc>
 17c:	00010100 	sll	$0,$1,0x4
 180:	07700205 	bltzal	$27,998 <__start-0x7ffff668>
 184:	16038000 	bne	$16,$3,fffe0188 <_bss_end+0x7ffde198>
 188:	084bf301 	j	12fcc04 <__start-0x7ed033fc>
 18c:	7508bb75 	jalx	422edd4 <__start-0x7bdd122c>
 190:	bb7508bb 	swr	$21,2235($27)
 194:	024b7508 	0x24b7508
 198:	01010018 	mult	$8,$1
 19c:	24020500 	addiu	$2,$0,1280
 1a0:	03800008 	jr	$28
 1a4:	3d080123 	0x3d080123
 1a8:	86aa08f4 	lh	$10,2292($21)
 1ac:	001c02bb 	0x1c02bb
 1b0:	05000101 	bltz	$8,5b8 <__start-0x7ffffa48>
 1b4:	00089402 	srl	$18,$8,0x10
 1b8:	012c0380 	0x12c0380
 1bc:	02003e08 	0x2003e08
 1c0:	82060104 	lb	$6,260($16)
 1c4:	7508bc06 	jalx	422f018 <__start-0x7bdd0fe8>
 1c8:	142c02f4 	bne	$1,$12,d9c <__start-0x7ffff264>
 1cc:	162c02f4 	bne	$17,$12,da0 <__start-0x7ffff260>
 1d0:	02040200 	0x2040200
 1d4:	03ba7303 	0x3ba7303
 1d8:	023c0810 	0x23c0810
 1dc:	0101001c 	0x101001c
 1e0:	88020500 	lwl	$2,1280($0)
 1e4:	03800009 	jalr	$0,$28
 1e8:	030100c1 	0x30100c1
 1ec:	02f3f20b 	0x2f3f20b
 1f0:	0101001c 	0x101001c
 1f4:	c4020500 	lwc1	$f2,1280($0)
 1f8:	03800009 	jalr	$0,$28
 1fc:	080100d0 	j	40340 <__start-0x7ffbfcc0>
 200:	02bbf33d 	0x2bbf33d
 204:	0101001c 	0x101001c
 208:	00000202 	srl	$0,$0,0x8
 20c:	006b0002 	0x6b0002
 210:	01010000 	0x1010000
 214:	000d0efb 	0xd0efb
 218:	01010101 	0x1010101
 21c:	01000000 	0x1000000
 220:	2f010000 	sltiu	$1,$24,0
 224:	2f727375 	sltiu	$18,$27,29557
 228:	2f62696c 	sltiu	$2,$27,26988
 22c:	2d636367 	sltiu	$3,$11,25447
 230:	736f7263 	0x736f7263
 234:	696d2f73 	0x696d2f73
 238:	6c2d7370 	0x6c2d7370
 23c:	78756e69 	0x78756e69
 240:	756e672d 	jalx	5b99cb4 <__start-0x7a46634c>
 244:	692f372f 	0x692f372f
 248:	756c636e 	jalx	5b18db8 <__start-0x7a4e7248>
 24c:	00006564 	0x6564
 250:	6c697475 	0x6c697475
 254:	2e797469 	sltiu	$25,$19,29801
 258:	00707063 	0x707063
 25c:	73000000 	madd	$24,$0
 260:	6e696474 	0x6e696474
 264:	63672d74 	0x63672d74
 268:	00682e63 	0x682e63
 26c:	75000001 	jalx	4000004 <__start-0x7bfffffc>
 270:	696c6974 	0x696c6974
 274:	682e7974 	0x682e7974
 278:	00000000 	sll	$0,$0,0x0
 27c:	02050000 	0x2050000
 280:	80000a10 	lb	$0,2576($0)
 284:	023d0815 	0x23d0815
 288:	1402132c 	bne	$0,$2,4f3c <__start-0x7fffb0c4>
 28c:	00010100 	sll	$0,$1,0x4
 290:	0a640205 	j	9900814 <__start-0x766ff7ec>
 294:	081a8000 	j	6a0000 <__start-0x7f960000>
 298:	08ad0875 	j	2b421d4 <__start-0x7d4bde2c>
 29c:	001802ad 	0x1802ad
 2a0:	05000101 	bltz	$8,6a8 <__start-0x7ffff958>
 2a4:	000acc02 	srl	$25,$10,0x10
 2a8:	010e0380 	0x10e0380
 2ac:	34023d08 	ori	$2,$0,0x3d08
 2b0:	134c0213 	beq	$26,$12,b00 <__start-0x7ffff500>
 2b4:	4b134c02 	c2	0x1134c02
 2b8:	01001402 	0x1001402
 2bc:	02050001 	movt	$0,$16,$fcc1
 2c0:	80000bc4 	lb	$0,3012($0)
 2c4:	08011603 	j	4580c <__start-0x7ffba7f4>
 2c8:	02ad0875 	0x2ad0875
 2cc:	02841134 	teq	$20,$4,0x44
 2d0:	0101001c 	0x101001c
 2d4:	50020500 	beql	$0,$2,16d8 <__start-0x7fffe928>
 2d8:	0380000c 	syscall	0xe0000
 2dc:	3d08011c 	0x3d08011c
 2e0:	01040200 	0x1040200
 2e4:	08068206 	j	1a0818 <__start-0x7fe5f7e8>
 2e8:	113402ad 	beq	$9,$20,da0 <__start-0x7ffff260>
 2ec:	001c0284 	0x1c0284
 2f0:	05000101 	bltz	$8,6f8 <__start-0x7ffff908>
 2f4:	000ce002 	srl	$28,$12,0x0
 2f8:	01220380 	0x1220380
 2fc:	3c027508 	lui	$2,0x7508
 300:	00180213 	0x180213
 304:	05000101 	bltz	$8,70c <__start-0x7ffff8f4>
 308:	000d4c02 	srl	$9,$13,0x10
 30c:	01270380 	0x1270380
 310:	3e083d08 	0x3e083d08
 314:	0402004b 	bltzl	$0,444 <__start-0x7ffffbbc>
 318:	064a0601 	tlti	$18,1537
 31c:	00f33d08 	0xf33d08
 320:	08020402 	j	81008 <__start-0x7ff7eff8>
 324:	083f08e2 	j	fc2388 <__start-0x7f03dc78>
 328:	8573083d 	lh	$19,2109($11)
 32c:	001802f3 	tltu	$0,$24,0xb
 330:	05000101 	bltz	$8,738 <__start-0x7ffff8c8>
 334:	000e3002 	srl	$6,$14,0x0
 338:	01350380 	0x1350380
 33c:	133802f3 	beq	$25,$24,f0c <__start-0x7ffff0f4>
 340:	01001402 	0x1001402
 344:	02050001 	movt	$0,$16,$fcc1
 348:	80000e8c 	lb	$0,3724($0)
 34c:	f3013a03 	0xf3013a03
 350:	02133802 	0x2133802
 354:	01010014 	0x1010014
 358:	e8020500 	swc2	$2,1280($0)
 35c:	0380000e 	0x380000e
 360:	3d08013f 	0x3d08013f
 364:	02133402 	0x2133402
 368:	01010014 	0x1010014
 36c:	44020500 	0x44020500
 370:	0380000f 	0x380000f
 374:	080100c4 	j	40310 <__start-0x7ffbfcf0>
 378:	1334023d 	beq	$25,$20,c70 <__start-0x7ffff390>
 37c:	01001402 	0x1001402
 380:	02050001 	movt	$0,$16,$fcc1
 384:	80000fa0 	lb	$0,4000($0)
 388:	0100c803 	0x100c803
 38c:	18023c08 	0x18023c08
 390:	00010100 	sll	$0,$1,0x4
 394:	0fcc0205 	jal	f300814 <__start-0x70cff7ec>
 398:	ca038000 	lwc2	$3,-32768($16)
 39c:	02f20100 	0x2f20100
 3a0:	01010018 	mult	$8,$1
 3a4:	f4020500 	sdc1	$f2,1280($0)
 3a8:	0380000f 	0x380000f
 3ac:	080100cd 	j	40334 <__start-0x7ffbfccc>
 3b0:	ad0883ad 	sw	$8,-31827($8)
 3b4:	02843b08 	0x2843b08
 3b8:	01010018 	mult	$8,$1
 3bc:	68020500 	0x68020500
 3c0:	03800010 	0x3800010
 3c4:	080100d4 	j	40350 <__start-0x7ffbfcb0>
 3c8:	ad08f375 	sw	$8,-3211($8)
 3cc:	0284e308 	0x284e308
 3d0:	01010018 	mult	$8,$1
 3d4:	ec020500 	swc3	$2,1280($0)
 3d8:	03800010 	0x3800010
 3dc:	080100db 	j	4036c <__start-0x7ffbfc94>
 3e0:	0402003d 	bltzl	$0,4d8 <__start-0x7ffffb28>
 3e4:	3c080601 	lui	$8,0x601
 3e8:	02040200 	0x2040200
 3ec:	040200ba 	bltzl	$0,6d8 <__start-0x7ffff928>
 3f0:	024b0605 	0x24b0605
 3f4:	01010014 	0x1010014
 3f8:	38020500 	xori	$2,$0,0x500
 3fc:	03800011 	mthi	$28
 400:	f30100e0 	0xf30100e0
 404:	08e608f3 	j	39823cc <__start-0x7c67dc34>
 408:	00140275 	0x140275
 40c:	00a60101 	0xa60101
 410:	00020000 	sll	$0,$2,0x0
 414:	00000067 	0x67
 418:	0efb0101 	jal	bec0404 <__start-0x7413fbfc>
 41c:	0101000d 	break	0x101
 420:	00000101 	0x101
 424:	00000100 	sll	$0,$0,0x4
 428:	73752f01 	0x73752f01
 42c:	696c2f72 	0x696c2f72
 430:	63672f62 	0x63672f62
 434:	72632d63 	0x72632d63
 438:	2f73736f 	sltiu	$19,$27,29551
 43c:	7370696d 	0x7370696d
 440:	6e696c2d 	0x6e696c2d
 444:	672d7875 	0x672d7875
 448:	372f756e 	ori	$15,$25,0x756e
 44c:	636e692f 	0x636e692f
 450:	6564756c 	0x6564756c
 454:	616d0000 	0x616d0000
 458:	632e6e69 	0x632e6e69
 45c:	00007070 	tge	$0,$0,0x1c1
 460:	74730000 	jalx	1cc0000 <__start-0x7e340000>
 464:	746e6964 	jalx	1b9a590 <__start-0x7e465a70>
 468:	6363672d 	0x6363672d
 46c:	0100682e 	0x100682e
 470:	61740000 	0x61740000
 474:	6c61685f 	0x6c61685f
 478:	0000682e 	0x682e
 47c:	00000000 	sll	$0,$0,0x0
 480:	11a40205 	beq	$13,$4,c98 <__start-0x7ffff368>
 484:	f3198000 	0xf3198000
 488:	14400250 	bnez	$2,dcc <__start-0x7ffff234>
 48c:	03f21e03 	0x3f21e03
 490:	bcbc8266 	cache	0x1c,-32154($5)
 494:	0200f8bf 	0x200f8bf
 498:	4a060104 	c2	0x60104
 49c:	f43e0806 	sdc1	$f30,2054($1)
 4a0:	132c02bc 	beq	$25,$12,f94 <__start-0x7ffff06c>
 4a4:	03133002 	0x3133002
 4a8:	7803ba78 	0x7803ba78
 4ac:	03bf3c08 	0x3bf3c08
 4b0:	02834a0d 	break	0x283,0x128
 4b4:	01010018 	mult	$8,$1

Disassembly of section .debug_str:

00000000 <.debug_str>:
   0:	66667542 	0x66667542
   4:	6e497265 	0x6e497265
   8:	50786564 	beql	$3,$24,1959c <__start-0x7ffe6a64>
   c:	6d007274 	0x6d007274
  10:	616d5f79 	0x616d5f79
  14:	65530063 	0x65530063
  18:	7453646e 	jalx	14d91b8 <__start-0x7eb26e48>
  1c:	50657461 	beql	$3,$5,1d1a4 <__start-0x7ffe2e5c>
  20:	73007274 	0x73007274
  24:	5f657a69 	0x5f657a69
  28:	65470074 	0x65470074
  2c:	63695474 	0x63695474
  30:	7400736b 	jalx	1cdac <__start-0x7ffe3254>
  34:	61685f61 	0x61685f61
  38:	70632e6c 	0x70632e6c
  3c:	4e470070 	c3	0x470070
  40:	2b432055 	slti	$3,$26,8277
  44:	2031312b 	addi	$17,$1,12587
  48:	2e342e37 	sltiu	$20,$17,11831
  4c:	6d2d2030 	0x6d2d2030
  50:	2d206c65 	sltiu	$0,$9,27749
  54:	6e69736d 	0x6e69736d
  58:	2d656c67 	sltiu	$5,$11,27751
  5c:	616f6c66 	0x616f6c66
  60:	6d2d2074 	0x6d2d2074
  64:	746f6778 	jalx	1bd9de0 <__start-0x7e426220>
  68:	6e6d2d20 	0x6e6d2d20
  6c:	62612d6f 	0x62612d6f
  70:	6c616369 	0x6c616369
  74:	2d20736c 	sltiu	$0,$9,29548
  78:	7261686d 	0x7261686d
  7c:	6c662d64 	0x6c662d64
  80:	2074616f 	addi	$20,$3,24943
  84:	70696d2d 	0x70696d2d
  88:	20323373 	addi	$18,$1,13171
  8c:	6c6c6d2d 	0x6c6c6d2d
  90:	2d206373 	sltiu	$0,$9,25459
  94:	2d6f6e6d 	sltiu	$15,$11,28269
  98:	3163786c 	andi	$3,$11,0x786c
  9c:	6378732d 	0x6378732d
  a0:	6d2d2031 	0x6d2d2031
  a4:	732d6f6e 	0x732d6f6e
  a8:	65726168 	0x65726168
  ac:	6d2d2064 	0x6d2d2064
  b0:	3d696261 	0x3d696261
  b4:	2d203233 	sltiu	$0,$9,12851
  b8:	732d2067 	0x732d2067
  bc:	633d6474 	0x633d6474
  c0:	31312b2b 	andi	$17,$9,0x2b2b
  c4:	66662d20 	0x66662d20
  c8:	74636e75 	jalx	18db9d4 <__start-0x7e72462c>
  cc:	2d6e6f69 	sltiu	$14,$11,28521
  d0:	74636573 	jalx	18d95cc <__start-0x7e726a34>
  d4:	736e6f69 	0x736e6f69
  d8:	64662d20 	0x64662d20
  dc:	2d617461 	sltiu	$1,$11,29793
  e0:	74636573 	jalx	18d95cc <__start-0x7e726a34>
  e4:	736e6f69 	0x736e6f69
  e8:	66662d20 	0x66662d20
  ec:	73656572 	0x73656572
  f0:	646e6174 	0x646e6174
  f4:	20676e69 	addi	$7,$3,28265
  f8:	6f6e662d 	0x6f6e662d
  fc:	6975622d 	0x6975622d
 100:	6e69746c 	0x6e69746c
 104:	6e662d20 	0x6e662d20
 108:	49502d6f 	0x49502d6f
 10c:	69750045 	0x69750045
 110:	3436746e 	ori	$22,$1,0x746e
 114:	6900745f 	0x6900745f
 118:	6e695f66 	0x6e695f66
 11c:	00786564 	0x786564
 120:	69736e75 	0x69736e75
 124:	64656e67 	0x64656e67
 128:	61686320 	0x61686320
 12c:	66690072 	0x66690072
 130:	6464615f 	0x6464615f
 134:	73007372 	0x73007372
 138:	6d5f6372 	0x6d5f6372
 13c:	73006361 	0x73006361
 140:	74726f68 	jalx	1c9bda0 <__start-0x7e364260>
 144:	736e7520 	0x736e7520
 148:	656e6769 	0x656e6769
 14c:	6e692064 	0x6e692064
 150:	6e490074 	0x6e490074
 154:	53007469 	beqzl	$24,1d2fc <__start-0x7ffe2d04>
 158:	49646e65 	0x49646e65
 15c:	63615050 	0x63615050
 160:	0074656b 	0x74656b
 164:	5f737973 	0x5f737973
 168:	65646e69 	0x65646e69
 16c:	6d2f0078 	0x6d2f0078
 170:	632f746e 	0x632f746e
 174:	6573552f 	0x6573552f
 178:	6e2f7372 	0x6e2f7372
 17c:	73616d61 	0x73616d61
 180:	636f442f 	0x636f442f
 184:	6e656d75 	0x6e656d75
 188:	432f7374 	c0	0x12f7374
 18c:	7372756f 	0x7372756f
 190:	30322f65 	andi	$18,$1,0x2f65
 194:	75413931 	jalx	504e4c4 <__start-0x7afb1b3c>
 198:	6e6d7574 	0x6e6d7574
 19c:	67724f2f 	0x67724f2f
 1a0:	7a696e61 	0x7a696e61
 1a4:	6f697461 	0x6f697461
 1a8:	74654e6e 	jalx	19539b8 <__start-0x7e6ac648>
 1ac:	6b726f77 	0x6b726f77
 1b0:	65707845 	0x65707845
 1b4:	656d6972 	0x656d6972
 1b8:	632f746e 	0x632f746e
 1bc:	3931646f 	xori	$17,$9,0x646f
 1c0:	32707267 	andi	$16,$19,0x7267
 1c4:	6968742f 	0x6968742f
 1c8:	6461706e 	0x6461706e
 1cc:	706f745f 	0x706f745f
 1d0:	6372732e 	0x6372732e
 1d4:	69732f73 	0x69732f73
 1d8:	2f315f6d 	sltiu	$17,$25,24429
 1dc:	2f77656e 	sltiu	$23,$27,25966
 1e0:	6863616d 	0x6863616d
 1e4:	2d656e69 	sltiu	$5,$11,28265
 1e8:	65646f63 	0x65646f63
 1ec:	6e65672d 	0x6e65672d
 1f0:	74617265 	jalx	185c994 <__start-0x7e7a366c>
 1f4:	4200726f 	c0	0x726f
 1f8:	45464655 	0x45464655
 1fc:	41425f52 	0x41425f52
 200:	415f4553 	0x415f4553
 204:	45524444 	0x45524444
 208:	64005353 	0x64005353
 20c:	6d5f7473 	0x6d5f7473
 210:	6c006361 	0x6c006361
 214:	20676e6f 	addi	$7,$3,28271
 218:	676e6f6c 	0x676e6f6c
 21c:	736e7520 	0x736e7520
 220:	656e6769 	0x656e6769
 224:	6e692064 	0x6e692064
 228:	69750074 	0x69750074
 22c:	5f38746e 	0x5f38746e
 230:	55420074 	bnel	$10,$2,404 <__start-0x7ffffbfc>
 234:	52454646 	beql	$18,$5,11b50 <__start-0x7ffee4b0>
 238:	4941545f 	0x4941545f
 23c:	44415f4c 	0x44415f4c
 240:	53455244 	beql	$26,$5,14b54 <__start-0x7ffeb4ac>
 244:	6f6c0053 	0x6f6c0053
 248:	6c20676e 	0x6c20676e
 24c:	20676e6f 	addi	$7,$3,28271
 250:	00746e69 	0x746e69
 254:	656d6974 	0x656d6974
 258:	0074756f 	0x74756f
 25c:	444e4553 	0x444e4553
 260:	4e4f435f 	c3	0x4f435f
 264:	4c4f5254 	0x4c4f5254
 268:	4444415f 	0x4444415f
 26c:	53534552 	beql	$26,$19,117b8 <__start-0x7ffee848>
 270:	63655200 	0x63655200
 274:	65766965 	0x65766965
 278:	61505049 	0x61505049
 27c:	74656b63 	jalx	195ad8c <__start-0x7e6a5274>
 280:	6f687300 	0x6f687300
 284:	69207472 	0x69207472
 288:	7300746e 	0x7300746e
 28c:	74726174 	jalx	1c985d0 <__start-0x7e367a30>
 290:	656d6954 	0x656d6954
 294:	66756200 	0x66756200
 298:	00726566 	0x726566
 29c:	746e6975 	jalx	1b9a5d4 <__start-0x7e465a2c>
 2a0:	745f3631 	jalx	17cd8c4 <__start-0x7e83273c>
 2a4:	6e697500 	0x6e697500
 2a8:	5f323374 	0x5f323374
 2ac:	6e690074 	0x6e690074
 2b0:	6464615f 	0x6464615f
 2b4:	00745f72 	tlt	$3,$20,0x17d
 2b8:	444e4553 	0x444e4553
 2bc:	4154535f 	0x4154535f
 2c0:	415f4554 	0x415f4554
 2c4:	45524444 	0x45524444
 2c8:	52005353 	beqzl	$16,15018 <__start-0x7ffeafe8>
 2cc:	4554554f 	0x4554554f
 2d0:	41545f52 	0x41545f52
 2d4:	5f454c42 	0x5f454c42
 2d8:	45534142 	0x45534142
 2dc:	6e656c00 	0x6e656c00
 2e0:	00687467 	0x687467
 2e4:	54524155 	bnel	$2,$18,1083c <__start-0x7ffef7c4>
 2e8:	0058545f 	0x58545f
 2ec:	746c6168 	jalx	1b185a0 <__start-0x7e4e7a60>
 2f0:	52415500 	beql	$18,$1,156f4 <__start-0x7ffea90c>
 2f4:	54535f54 	bnel	$2,$19,18048 <__start-0x7ffe7fb8>
 2f8:	67005441 	0x67005441
 2fc:	00637465 	0x637465
 300:	706d6574 	0x706d6574
 304:	6f6f6200 	0x6f6f6200
 308:	616f6c74 	0x616f6c74
 30c:	2e726564 	sltiu	$18,$19,25956
 310:	00707063 	0x707063
 314:	6c746567 	0x6c746567
 318:	62006e65 	0x62006e65
 31c:	6c746f6f 	0x6c746f6f
 320:	6564616f 	0x6564616f
 324:	75700072 	jalx	5c001c8 <__start-0x7a3ffe38>
 328:	70006374 	0x70006374
 32c:	00737475 	0x737475
 330:	54524155 	bnel	$2,$18,10888 <__start-0x7ffef778>
 334:	0058525f 	0x58525f
 338:	68747570 	0x68747570
 33c:	6e007865 	0x6e007865
 340:	6c686f74 	0x6c686f74
 344:	375a5f00 	ori	$26,$26,0x5f00
 348:	63747570 	0x63747570
 34c:	63726168 	0x63726168
 350:	365a5f00 	ori	$26,$18,0x5f00
 354:	736d656d 	0x736d656d
 358:	76507465 	jalx	941d194 <__start-0x76be2e6c>
 35c:	6e006d63 	0x6e006d63
 360:	73686f74 	0x73686f74
 364:	74757000 	jalx	1d5c000 <__start-0x7e2a4000>
 368:	72616863 	0x72616863
 36c:	74656700 	jalx	1959c00 <__start-0x7e6a6400>
 370:	61746144 	0x61746144
 374:	365a5f00 	ori	$26,$18,0x5f00
 378:	7074756f 	0x7074756f
 37c:	006a7475 	0x6a7475
 380:	636d656d 	0x636d656d
 384:	68007970 	0x68007970
 388:	736e6f74 	0x736e6f74
 38c:	365a5f00 	ori	$26,$18,0x5f00
 390:	6e697270 	0x6e697270
 394:	4b506674 	c2	0x1506674
 398:	61700063 	0x61700063
 39c:	74656b63 	jalx	195ad8c <__start-0x7e6a5274>
 3a0:	6c616300 	0x6c616300
 3a4:	656d0063 	0x656d0063
 3a8:	7465736d 	jalx	195cdb4 <__start-0x7e6a324c>
 3ac:	365a5f00 	ori	$26,$18,0x5f00
 3b0:	636d656d 	0x636d656d
 3b4:	76507970 	jalx	941e5c0 <__start-0x76be1a40>
 3b8:	006d5f53 	0x6d5f53
 3bc:	74786568 	jalx	1e195a0 <__start-0x7e1e6a60>
 3c0:	0068636f 	0x68636f
 3c4:	74697277 	jalx	1a5c9dc <__start-0x7e5a3624>
 3c8:	74614465 	jalx	1851194 <__start-0x7e7aee6c>
 3cc:	5a5f0061 	0x5a5f0061
 3d0:	69727739 	0x69727739
 3d4:	61446574 	0x61446574
 3d8:	68506174 	0x68506174
 3dc:	5f00696d 	bgtzl	$24,1a994 <__start-0x7ffe566c>
 3e0:	6572375a 	0x6572375a
 3e4:	73726576 	0x73726576
 3e8:	5f006865 	bgtzl	$24,1a580 <__start-0x7ffe5a80>
 3ec:	746e355a 	jalx	1b8d568 <__start-0x7e472a98>
 3f0:	7473686f 	jalx	1cda1bc <__start-0x7e325e44>
 3f4:	375a5f00 	ori	$26,$26,0x5f00
 3f8:	44746567 	0x44746567
 3fc:	50617461 	beql	$3,$1,1d584 <__start-0x7ffe2a7c>
 400:	006d684b 	0x6d684b
 404:	72646461 	0x72646461
 408:	315a5f00 	andi	$26,$10,0x5f00
 40c:	43504930 	c0	0x1504930
 410:	6b636568 	0x6b636568
 414:	506d7573 	beql	$3,$13,1d9e4 <__start-0x7ffe261c>
 418:	5a5f0068 	0x5a5f0068
 41c:	6e696d33 	0x6e696d33
 420:	75006a6a 	jalx	401a9a8 <__start-0x7bfe5658>
 424:	696c6974 	0x696c6974
 428:	632e7974 	0x632e7974
 42c:	5f007070 	bgtzl	$24,1c5f0 <__start-0x7ffe3a10>
 430:	6163345a 	0x6163345a
 434:	696a636c 	0x696a636c
 438:	76657200 	jalx	995c800 <__start-0x766a3800>
 43c:	65737265 	0x65737265
 440:	6f746800 	0x6f746800
 444:	5f006c6e 	bgtzl	$24,1b600 <__start-0x7ffe4a00>
 448:	756f335a 	jalx	5bccd68 <__start-0x7a433298>
 44c:	00696a74 	teq	$3,$9,0x1a9
 450:	68355a5f 	0x68355a5f
 454:	736e6f74 	0x736e6f74
 458:	756f0074 	jalx	5bc01d0 <__start-0x7a43fe30>
 45c:	74757074 	jalx	1d5c1d0 <__start-0x7e2a3e30>
 460:	735f6300 	0x735f6300
 464:	70006372 	0x70006372
 468:	746e6972 	jalx	1b9a5c8 <__start-0x7e465a38>
 46c:	5a5f0066 	0x5a5f0066
 470:	6f746e35 	0x6f746e35
 474:	006a6c68 	0x6a6c68
 478:	73645f63 	0x73645f63
 47c:	5a5f0074 	0x5a5f0074
 480:	6f746835 	0x6f746835
 484:	006a6c6e 	0x6a6c6e
 488:	68375a5f 	0x68375a5f
 48c:	6f747865 	0x6f747865
 490:	00696863 	0x696863
 494:	68435049 	0x68435049
 498:	736b6365 	0x736b6365
 49c:	48006d75 	0x48006d75
 4a0:	455f4c41 	0x455f4c41
 4a4:	495f5252 	0x495f5252
 4a8:	4f4e5f50 	c3	0x14e5f50
 4ac:	58455f54 	0x58455f54
 4b0:	00545349 	0x545349
 4b4:	6163616d 	0x6163616d
 4b8:	5f726464 	0x5f726464
 4bc:	41480074 	0x41480074
 4c0:	52455f4c 	beql	$18,$5,181f4 <__start-0x7ffe7e0c>
 4c4:	41435f52 	0x41435f52
 4c8:	44454c4c 	0x44454c4c
 4cc:	4645425f 	c1	0x45425f
 4d0:	5f45524f 	0x5f45524f
 4d4:	54494e49 	bnel	$2,$9,13dfc <__start-0x7ffec204>
 4d8:	4c414800 	cfc3	$1,$9
 4dc:	5252455f 	beql	$18,$18,11a5c <__start-0x7ffee5a4>
 4e0:	4b4e555f 	c2	0x14e555f
 4e4:	4e574f4e 	c3	0x574f4e
 4e8:	4c414800 	cfc3	$1,$9
 4ec:	5252455f 	beql	$18,$18,11a6c <__start-0x7ffee594>
 4f0:	4e5f524f 	c3	0x5f524f
 4f4:	45424d55 	0x45424d55
 4f8:	616d0052 	0x616d0052
 4fc:	632e6e69 	0x632e6e69
 500:	6d007070 	0x6d007070
 504:	006e6961 	0x6e6961
 508:	5f4c4148 	0x5f4c4148
 50c:	5f525245 	0x5f525245
 510:	41564e49 	0x41564e49
 514:	5f44494c 	0x5f44494c
 518:	41524150 	0x41524150
 51c:	4554454d 	0x4554454d
 520:	41480052 	0x41480052
 524:	52455f4c 	beql	$18,$5,18258 <__start-0x7ffe7da8>
 528:	46495f52 	c1	0x495f52
 52c:	5f454341 	0x5f454341
 530:	5f544f4e 	0x5f544f4e
 534:	53495845 	beql	$26,$9,1664c <__start-0x7ffe99b4>
 538:	41480054 	0x41480054
 53c:	52455f4c 	beql	$18,$5,18270 <__start-0x7ffe7d90>
 540:	4f4e5f52 	c3	0x14e5f52
 544:	55535f54 	bnel	$10,$19,18298 <__start-0x7ffe7d68>
 548:	524f5050 	beql	$18,$15,1468c <__start-0x7ffeb974>
 54c:	00444554 	0x444554
 550:	66667562 	0x66667562
 554:	685f7265 	0x685f7265
 558:	65646165 	0x65646165
 55c:	41480072 	0x41480072
 560:	52455f4c 	beql	$18,$5,18294 <__start-0x7ffe7d6c>
 564:	4f455f52 	c3	0x1455f52
 568:	Address 0x0000000000000568 is out of bounds.

