
boilerplate.o:     file format elf32-tradlittlemips


Disassembly of section .text:

80000000 <__start>:
80000000:	3c1d8080 	lui	$29,0x8080
80000004:	04110196 	bgezal	$0,80000660 <bootloader>
80000008:	00000000 	sll	$0,$0,0x0

8000000c <boot>:
8000000c:	3c158000 	lui	$21,0x8000
80000010:	02a00008 	jr	$21
80000014:	00000000 	sll	$0,$0,0x0
	...

80000380 <__halt>:
80000380:	3c1d8080 	lui	$29,0x8080
80000384:	40047000 	mfc0	$4,c0_epc
80000388:	041100c4 	bgezal	$0,8000069c <halt>
8000038c:	00000000 	sll	$0,$0,0x0

80000390 <end>:
80000390:	1000ffff 	beqz	$0,80000390 <end>
80000394:	00000000 	sll	$0,$0,0x0

80000398 <putc>:
80000398:	27bdfff8 	addiu	$29,$29,-8
8000039c:	afbe0004 	sw	$30,4($29)
800003a0:	03a0f025 	or	$30,$29,$0
800003a4:	00801025 	or	$2,$4,$0
800003a8:	a3c20008 	sb	$2,8($30)
800003ac:	3c028000 	lui	$2,0x8000
800003b0:	8c421238 	lw	$2,4664($2)
800003b4:	8c420000 	lw	$2,0($2)
800003b8:	30420001 	andi	$2,$2,0x1
800003bc:	2c420001 	sltiu	$2,$2,1
800003c0:	304200ff 	andi	$2,$2,0xff
800003c4:	10400003 	beqz	$2,800003d4 <putc+0x3c>
800003c8:	00000000 	sll	$0,$0,0x0
800003cc:	1000fff7 	beqz	$0,800003ac <putc+0x14>
800003d0:	00000000 	sll	$0,$0,0x0
800003d4:	3c028000 	lui	$2,0x8000
800003d8:	8c421234 	lw	$2,4660($2)
800003dc:	83c30008 	lb	$3,8($30)
800003e0:	ac430000 	sw	$3,0($2)
800003e4:	00000000 	sll	$0,$0,0x0
800003e8:	03c0e825 	or	$29,$30,$0
800003ec:	8fbe0004 	lw	$30,4($29)
800003f0:	27bd0008 	addiu	$29,$29,8
800003f4:	03e00008 	jr	$31
800003f8:	00000000 	sll	$0,$0,0x0

800003fc <getc>:
800003fc:	27bdfff8 	addiu	$29,$29,-8
80000400:	afbe0004 	sw	$30,4($29)
80000404:	03a0f025 	or	$30,$29,$0
80000408:	3c028000 	lui	$2,0x8000
8000040c:	8c421238 	lw	$2,4664($2)
80000410:	8c420000 	lw	$2,0($2)
80000414:	30420002 	andi	$2,$2,0x2
80000418:	2c420001 	sltiu	$2,$2,1
8000041c:	304200ff 	andi	$2,$2,0xff
80000420:	10400003 	beqz	$2,80000430 <getc+0x34>
80000424:	00000000 	sll	$0,$0,0x0
80000428:	1000fff7 	beqz	$0,80000408 <getc+0xc>
8000042c:	00000000 	sll	$0,$0,0x0
80000430:	3c028000 	lui	$2,0x8000
80000434:	8c421230 	lw	$2,4656($2)
80000438:	8c420000 	lw	$2,0($2)
8000043c:	304200ff 	andi	$2,$2,0xff
80000440:	03c0e825 	or	$29,$30,$0
80000444:	8fbe0004 	lw	$30,4($29)
80000448:	27bd0008 	addiu	$29,$29,8
8000044c:	03e00008 	jr	$31
80000450:	00000000 	sll	$0,$0,0x0

80000454 <getlen>:
80000454:	27bdffe0 	addiu	$29,$29,-32
80000458:	afbf001c 	sw	$31,28($29)
8000045c:	afbe0018 	sw	$30,24($29)
80000460:	03a0f025 	or	$30,$29,$0
80000464:	afc00010 	sw	$0,16($30)
80000468:	0c0000ff 	jal	800003fc <getc>
8000046c:	00000000 	sll	$0,$0,0x0
80000470:	00401825 	or	$3,$2,$0
80000474:	8fc20010 	lw	$2,16($30)
80000478:	00431025 	or	$2,$2,$3
8000047c:	afc20010 	sw	$2,16($30)
80000480:	8fc20010 	lw	$2,16($30)
80000484:	00021200 	sll	$2,$2,0x8
80000488:	afc20010 	sw	$2,16($30)
8000048c:	0c0000ff 	jal	800003fc <getc>
80000490:	00000000 	sll	$0,$0,0x0
80000494:	00401825 	or	$3,$2,$0
80000498:	8fc20010 	lw	$2,16($30)
8000049c:	00431025 	or	$2,$2,$3
800004a0:	afc20010 	sw	$2,16($30)
800004a4:	8fc20010 	lw	$2,16($30)
800004a8:	00021200 	sll	$2,$2,0x8
800004ac:	afc20010 	sw	$2,16($30)
800004b0:	0c0000ff 	jal	800003fc <getc>
800004b4:	00000000 	sll	$0,$0,0x0
800004b8:	00401825 	or	$3,$2,$0
800004bc:	8fc20010 	lw	$2,16($30)
800004c0:	00431025 	or	$2,$2,$3
800004c4:	afc20010 	sw	$2,16($30)
800004c8:	8fc20010 	lw	$2,16($30)
800004cc:	00021200 	sll	$2,$2,0x8
800004d0:	afc20010 	sw	$2,16($30)
800004d4:	0c0000ff 	jal	800003fc <getc>
800004d8:	00000000 	sll	$0,$0,0x0
800004dc:	00401825 	or	$3,$2,$0
800004e0:	8fc20010 	lw	$2,16($30)
800004e4:	00431025 	or	$2,$2,$3
800004e8:	afc20010 	sw	$2,16($30)
800004ec:	8fc20010 	lw	$2,16($30)
800004f0:	03c0e825 	or	$29,$30,$0
800004f4:	8fbf001c 	lw	$31,28($29)
800004f8:	8fbe0018 	lw	$30,24($29)
800004fc:	27bd0020 	addiu	$29,$29,32
80000500:	03e00008 	jr	$31
80000504:	00000000 	sll	$0,$0,0x0

80000508 <puts>:
80000508:	27bdffe8 	addiu	$29,$29,-24
8000050c:	afbf0014 	sw	$31,20($29)
80000510:	afbe0010 	sw	$30,16($29)
80000514:	03a0f025 	or	$30,$29,$0
80000518:	afc40018 	sw	$4,24($30)
8000051c:	8fc20018 	lw	$2,24($30)
80000520:	80420000 	lb	$2,0($2)
80000524:	1040000a 	beqz	$2,80000550 <puts+0x48>
80000528:	00000000 	sll	$0,$0,0x0
8000052c:	8fc20018 	lw	$2,24($30)
80000530:	24430001 	addiu	$3,$2,1
80000534:	afc30018 	sw	$3,24($30)
80000538:	80420000 	lb	$2,0($2)
8000053c:	00402025 	or	$4,$2,$0
80000540:	0c0000e6 	jal	80000398 <putc>
80000544:	00000000 	sll	$0,$0,0x0
80000548:	1000fff4 	beqz	$0,8000051c <puts+0x14>
8000054c:	00000000 	sll	$0,$0,0x0
80000550:	00000000 	sll	$0,$0,0x0
80000554:	03c0e825 	or	$29,$30,$0
80000558:	8fbf0014 	lw	$31,20($29)
8000055c:	8fbe0010 	lw	$30,16($29)
80000560:	27bd0018 	addiu	$29,$29,24
80000564:	03e00008 	jr	$31
80000568:	00000000 	sll	$0,$0,0x0

8000056c <puthex>:
8000056c:	27bdffe0 	addiu	$29,$29,-32
80000570:	afbf001c 	sw	$31,28($29)
80000574:	afbe0018 	sw	$30,24($29)
80000578:	03a0f025 	or	$30,$29,$0
8000057c:	afc40020 	sw	$4,32($30)
80000580:	24020007 	addiu	$2,$0,7
80000584:	afc20010 	sw	$2,16($30)
80000588:	8fc20010 	lw	$2,16($30)
8000058c:	0440002d 	bltz	$2,80000644 <puthex+0xd8>
80000590:	00000000 	sll	$0,$0,0x0
80000594:	8fc20010 	lw	$2,16($30)
80000598:	00021080 	sll	$2,$2,0x2
8000059c:	8fc30020 	lw	$3,32($30)
800005a0:	00431006 	srlv	$2,$3,$2
800005a4:	3042000f 	andi	$2,$2,0xf
800005a8:	afc20014 	sw	$2,20($30)
800005ac:	8fc20014 	lw	$2,20($30)
800005b0:	2842000b 	slti	$2,$2,11
800005b4:	1040000c 	beqz	$2,800005e8 <puthex+0x7c>
800005b8:	00000000 	sll	$0,$0,0x0
800005bc:	8fc20014 	lw	$2,20($30)
800005c0:	304200ff 	andi	$2,$2,0xff
800005c4:	24420030 	addiu	$2,$2,48
800005c8:	304200ff 	andi	$2,$2,0xff
800005cc:	00021600 	sll	$2,$2,0x18
800005d0:	00021603 	sra	$2,$2,0x18
800005d4:	00402025 	or	$4,$2,$0
800005d8:	0c0000e6 	jal	80000398 <putc>
800005dc:	00000000 	sll	$0,$0,0x0
800005e0:	10000013 	beqz	$0,80000630 <puthex+0xc4>
800005e4:	00000000 	sll	$0,$0,0x0
800005e8:	8fc20014 	lw	$2,20($30)
800005ec:	28420010 	slti	$2,$2,16
800005f0:	1040000c 	beqz	$2,80000624 <puthex+0xb8>
800005f4:	00000000 	sll	$0,$0,0x0
800005f8:	8fc20014 	lw	$2,20($30)
800005fc:	304200ff 	andi	$2,$2,0xff
80000600:	24420037 	addiu	$2,$2,55
80000604:	304200ff 	andi	$2,$2,0xff
80000608:	00021600 	sll	$2,$2,0x18
8000060c:	00021603 	sra	$2,$2,0x18
80000610:	00402025 	or	$4,$2,$0
80000614:	0c0000e6 	jal	80000398 <putc>
80000618:	00000000 	sll	$0,$0,0x0
8000061c:	10000004 	beqz	$0,80000630 <puthex+0xc4>
80000620:	00000000 	sll	$0,$0,0x0
80000624:	2404002e 	addiu	$4,$0,46
80000628:	0c0000e6 	jal	80000398 <putc>
8000062c:	00000000 	sll	$0,$0,0x0
80000630:	8fc20010 	lw	$2,16($30)
80000634:	2442ffff 	addiu	$2,$2,-1
80000638:	afc20010 	sw	$2,16($30)
8000063c:	1000ffd2 	beqz	$0,80000588 <puthex+0x1c>
80000640:	00000000 	sll	$0,$0,0x0
80000644:	00000000 	sll	$0,$0,0x0
80000648:	03c0e825 	or	$29,$30,$0
8000064c:	8fbf001c 	lw	$31,28($29)
80000650:	8fbe0018 	lw	$30,24($29)
80000654:	27bd0020 	addiu	$29,$29,32
80000658:	03e00008 	jr	$31
8000065c:	00000000 	sll	$0,$0,0x0

80000660 <bootloader>:
80000660:	27bdffe8 	addiu	$29,$29,-24
80000664:	afbf0014 	sw	$31,20($29)
80000668:	afbe0010 	sw	$30,16($29)
8000066c:	03a0f025 	or	$30,$29,$0
80000670:	3c028000 	lui	$2,0x8000
80000674:	24440e50 	addiu	$4,$2,3664
80000678:	0c000142 	jal	80000508 <puts>
8000067c:	00000000 	sll	$0,$0,0x0
80000680:	00000000 	sll	$0,$0,0x0
80000684:	03c0e825 	or	$29,$30,$0
80000688:	8fbf0014 	lw	$31,20($29)
8000068c:	8fbe0010 	lw	$30,16($29)
80000690:	27bd0018 	addiu	$29,$29,24
80000694:	03e00008 	jr	$31
80000698:	00000000 	sll	$0,$0,0x0

8000069c <halt>:
8000069c:	27bdffe8 	addiu	$29,$29,-24
800006a0:	afbf0014 	sw	$31,20($29)
800006a4:	afbe0010 	sw	$30,16($29)
800006a8:	03a0f025 	or	$30,$29,$0
800006ac:	afc40018 	sw	$4,24($30)
800006b0:	3c028000 	lui	$2,0x8000
800006b4:	24440e54 	addiu	$4,$2,3668
800006b8:	0c000142 	jal	80000508 <puts>
800006bc:	00000000 	sll	$0,$0,0x0
800006c0:	8fc40018 	lw	$4,24($30)
800006c4:	0c00015b 	jal	8000056c <puthex>
800006c8:	00000000 	sll	$0,$0,0x0
800006cc:	00000000 	sll	$0,$0,0x0
800006d0:	03c0e825 	or	$29,$30,$0
800006d4:	8fbf0014 	lw	$31,20($29)
800006d8:	8fbe0010 	lw	$30,16($29)
800006dc:	27bd0018 	addiu	$29,$29,24
800006e0:	03e00008 	jr	$31
800006e4:	00000000 	sll	$0,$0,0x0

800006e8 <_Z7getDataPKhm>:
800006e8:	27bdfff8 	addiu	$29,$29,-8
800006ec:	afbe0004 	sw	$30,4($29)
800006f0:	03a0f025 	or	$30,$29,$0
800006f4:	afc40008 	sw	$4,8($30)
800006f8:	afc5000c 	sw	$5,12($30)
800006fc:	8fc30008 	lw	$3,8($30)
80000700:	8fc2000c 	lw	$2,12($30)
80000704:	00621021 	addu	$2,$3,$2
80000708:	90420000 	lbu	$2,0($2)
8000070c:	00021200 	sll	$2,$2,0x8
80000710:	8fc3000c 	lw	$3,12($30)
80000714:	24630001 	addiu	$3,$3,1
80000718:	8fc40008 	lw	$4,8($30)
8000071c:	00831821 	addu	$3,$4,$3
80000720:	90630000 	lbu	$3,0($3)
80000724:	00431025 	or	$2,$2,$3
80000728:	03c0e825 	or	$29,$30,$0
8000072c:	8fbe0004 	lw	$30,4($29)
80000730:	27bd0008 	addiu	$29,$29,8
80000734:	03e00008 	jr	$31
80000738:	00000000 	sll	$0,$0,0x0

8000073c <_Z9writeDataPhmi>:
8000073c:	27bdfff8 	addiu	$29,$29,-8
80000740:	afbe0004 	sw	$30,4($29)
80000744:	03a0f025 	or	$30,$29,$0
80000748:	afc40008 	sw	$4,8($30)
8000074c:	afc5000c 	sw	$5,12($30)
80000750:	afc60010 	sw	$6,16($30)
80000754:	8fc20010 	lw	$2,16($30)
80000758:	00022203 	sra	$4,$2,0x8
8000075c:	8fc30008 	lw	$3,8($30)
80000760:	8fc2000c 	lw	$2,12($30)
80000764:	00621021 	addu	$2,$3,$2
80000768:	308300ff 	andi	$3,$4,0xff
8000076c:	a0430000 	sb	$3,0($2)
80000770:	8fc2000c 	lw	$2,12($30)
80000774:	24420001 	addiu	$2,$2,1
80000778:	8fc30008 	lw	$3,8($30)
8000077c:	00621021 	addu	$2,$3,$2
80000780:	8fc30010 	lw	$3,16($30)
80000784:	306300ff 	andi	$3,$3,0xff
80000788:	a0430000 	sb	$3,0($2)
8000078c:	00000000 	sll	$0,$0,0x0
80000790:	03c0e825 	or	$29,$30,$0
80000794:	8fbe0004 	lw	$30,4($29)
80000798:	27bd0008 	addiu	$29,$29,8
8000079c:	03e00008 	jr	$31
800007a0:	00000000 	sll	$0,$0,0x0

800007a4 <_Z7reverseh>:
800007a4:	27bdfff8 	addiu	$29,$29,-8
800007a8:	afbe0004 	sw	$30,4($29)
800007ac:	03a0f025 	or	$30,$29,$0
800007b0:	00801025 	or	$2,$4,$0
800007b4:	a3c20008 	sb	$2,8($30)
800007b8:	93c20008 	lbu	$2,8($30)
800007bc:	00021102 	srl	$2,$2,0x4
800007c0:	304200ff 	andi	$2,$2,0xff
800007c4:	00021e00 	sll	$3,$2,0x18
800007c8:	00031e03 	sra	$3,$3,0x18
800007cc:	93c20008 	lbu	$2,8($30)
800007d0:	00021100 	sll	$2,$2,0x4
800007d4:	00021600 	sll	$2,$2,0x18
800007d8:	00021603 	sra	$2,$2,0x18
800007dc:	00621025 	or	$2,$3,$2
800007e0:	00021600 	sll	$2,$2,0x18
800007e4:	00021603 	sra	$2,$2,0x18
800007e8:	a3c20008 	sb	$2,8($30)
800007ec:	93c20008 	lbu	$2,8($30)
800007f0:	00021083 	sra	$2,$2,0x2
800007f4:	00021600 	sll	$2,$2,0x18
800007f8:	00021603 	sra	$2,$2,0x18
800007fc:	30420033 	andi	$2,$2,0x33
80000800:	00021e00 	sll	$3,$2,0x18
80000804:	00031e03 	sra	$3,$3,0x18
80000808:	93c20008 	lbu	$2,8($30)
8000080c:	00021080 	sll	$2,$2,0x2
80000810:	00022600 	sll	$4,$2,0x18
80000814:	00042603 	sra	$4,$4,0x18
80000818:	2402ffcc 	addiu	$2,$0,-52
8000081c:	00821024 	and	$2,$4,$2
80000820:	00021600 	sll	$2,$2,0x18
80000824:	00021603 	sra	$2,$2,0x18
80000828:	00621025 	or	$2,$3,$2
8000082c:	00021600 	sll	$2,$2,0x18
80000830:	00021603 	sra	$2,$2,0x18
80000834:	a3c20008 	sb	$2,8($30)
80000838:	93c20008 	lbu	$2,8($30)
8000083c:	00021043 	sra	$2,$2,0x1
80000840:	00021600 	sll	$2,$2,0x18
80000844:	00021603 	sra	$2,$2,0x18
80000848:	30420055 	andi	$2,$2,0x55
8000084c:	00021e00 	sll	$3,$2,0x18
80000850:	00031e03 	sra	$3,$3,0x18
80000854:	93c20008 	lbu	$2,8($30)
80000858:	00021040 	sll	$2,$2,0x1
8000085c:	00022600 	sll	$4,$2,0x18
80000860:	00042603 	sra	$4,$4,0x18
80000864:	2402ffaa 	addiu	$2,$0,-86
80000868:	00821024 	and	$2,$4,$2
8000086c:	00021600 	sll	$2,$2,0x18
80000870:	00021603 	sra	$2,$2,0x18
80000874:	00621025 	or	$2,$3,$2
80000878:	00021600 	sll	$2,$2,0x18
8000087c:	00021603 	sra	$2,$2,0x18
80000880:	a3c20008 	sb	$2,8($30)
80000884:	93c20008 	lbu	$2,8($30)
80000888:	03c0e825 	or	$29,$30,$0
8000088c:	8fbe0004 	lw	$30,4($29)
80000890:	27bd0008 	addiu	$29,$29,8
80000894:	03e00008 	jr	$31
80000898:	00000000 	sll	$0,$0,0x0

8000089c <_Z3outji>:
8000089c:	27bdffe8 	addiu	$29,$29,-24
800008a0:	afbf0014 	sw	$31,20($29)
800008a4:	afbe0010 	sw	$30,16($29)
800008a8:	03a0f025 	or	$30,$29,$0
800008ac:	afc40018 	sw	$4,24($30)
800008b0:	afc5001c 	sw	$5,28($30)
800008b4:	8fc2001c 	lw	$2,28($30)
800008b8:	2443ffff 	addiu	$3,$2,-1
800008bc:	afc3001c 	sw	$3,28($30)
800008c0:	0002102b 	sltu	$2,$0,$2
800008c4:	304200ff 	andi	$2,$2,0xff
800008c8:	10400010 	beqz	$2,8000090c <_Z3outji+0x70>
800008cc:	00000000 	sll	$0,$0,0x0
800008d0:	8fc30018 	lw	$3,24($30)
800008d4:	8fc2001c 	lw	$2,28($30)
800008d8:	00431006 	srlv	$2,$3,$2
800008dc:	304200ff 	andi	$2,$2,0xff
800008e0:	30420001 	andi	$2,$2,0x1
800008e4:	304200ff 	andi	$2,$2,0xff
800008e8:	38420030 	xori	$2,$2,0x30
800008ec:	304200ff 	andi	$2,$2,0xff
800008f0:	00021600 	sll	$2,$2,0x18
800008f4:	00021603 	sra	$2,$2,0x18
800008f8:	00402025 	or	$4,$2,$0
800008fc:	0c00031e 	jal	80000c78 <_Z7putcharc>
80000900:	00000000 	sll	$0,$0,0x0
80000904:	1000ffeb 	beqz	$0,800008b4 <_Z3outji+0x18>
80000908:	00000000 	sll	$0,$0,0x0
8000090c:	00000000 	sll	$0,$0,0x0
80000910:	03c0e825 	or	$29,$30,$0
80000914:	8fbf0014 	lw	$31,20($29)
80000918:	8fbe0010 	lw	$30,16($29)
8000091c:	27bd0018 	addiu	$29,$29,24
80000920:	03e00008 	jr	$31
80000924:	00000000 	sll	$0,$0,0x0

80000928 <_Z6outputj>:
80000928:	27bdffe0 	addiu	$29,$29,-32
8000092c:	afbf001c 	sw	$31,28($29)
80000930:	afbe0018 	sw	$30,24($29)
80000934:	03a0f025 	or	$30,$29,$0
80000938:	afc40020 	sw	$4,32($30)
8000093c:	24020020 	addiu	$2,$0,32
80000940:	afc20010 	sw	$2,16($30)
80000944:	8fc20010 	lw	$2,16($30)
80000948:	2443ffff 	addiu	$3,$2,-1
8000094c:	afc30010 	sw	$3,16($30)
80000950:	0002102b 	sltu	$2,$0,$2
80000954:	304200ff 	andi	$2,$2,0xff
80000958:	10400010 	beqz	$2,8000099c <_Z6outputj+0x74>
8000095c:	00000000 	sll	$0,$0,0x0
80000960:	8fc30020 	lw	$3,32($30)
80000964:	8fc20010 	lw	$2,16($30)
80000968:	00431006 	srlv	$2,$3,$2
8000096c:	304200ff 	andi	$2,$2,0xff
80000970:	30420001 	andi	$2,$2,0x1
80000974:	304200ff 	andi	$2,$2,0xff
80000978:	38420030 	xori	$2,$2,0x30
8000097c:	304200ff 	andi	$2,$2,0xff
80000980:	00021600 	sll	$2,$2,0x18
80000984:	00021603 	sra	$2,$2,0x18
80000988:	00402025 	or	$4,$2,$0
8000098c:	0c00031e 	jal	80000c78 <_Z7putcharc>
80000990:	00000000 	sll	$0,$0,0x0
80000994:	1000ffeb 	beqz	$0,80000944 <_Z6outputj+0x1c>
80000998:	00000000 	sll	$0,$0,0x0
8000099c:	00000000 	sll	$0,$0,0x0
800009a0:	03c0e825 	or	$29,$30,$0
800009a4:	8fbf001c 	lw	$31,28($29)
800009a8:	8fbe0018 	lw	$30,24($29)
800009ac:	27bd0020 	addiu	$29,$29,32
800009b0:	03e00008 	jr	$31
800009b4:	00000000 	sll	$0,$0,0x0

800009b8 <_Z4calcji>:
800009b8:	27bdffe8 	addiu	$29,$29,-24
800009bc:	afbf0014 	sw	$31,20($29)
800009c0:	afbe0010 	sw	$30,16($29)
800009c4:	03a0f025 	or	$30,$29,$0
800009c8:	afc40018 	sw	$4,24($30)
800009cc:	afc5001c 	sw	$5,28($30)
800009d0:	8fc40018 	lw	$4,24($30)
800009d4:	0c0002d9 	jal	80000b64 <_Z5ntohlj>
800009d8:	00000000 	sll	$0,$0,0x0
800009dc:	00402025 	or	$4,$2,$0
800009e0:	24030020 	addiu	$3,$0,32
800009e4:	8fc2001c 	lw	$2,28($30)
800009e8:	00621023 	subu	$2,$3,$2
800009ec:	00441806 	srlv	$3,$4,$2
800009f0:	24040020 	addiu	$4,$0,32
800009f4:	8fc2001c 	lw	$2,28($30)
800009f8:	00821023 	subu	$2,$4,$2
800009fc:	00431004 	sllv	$2,$3,$2
80000a00:	00402025 	or	$4,$2,$0
80000a04:	0c0002c2 	jal	80000b08 <_Z5htonlj>
80000a08:	00000000 	sll	$0,$0,0x0
80000a0c:	03c0e825 	or	$29,$30,$0
80000a10:	8fbf0014 	lw	$31,20($29)
80000a14:	8fbe0010 	lw	$30,16($29)
80000a18:	27bd0018 	addiu	$29,$29,24
80000a1c:	03e00008 	jr	$31
80000a20:	00000000 	sll	$0,$0,0x0

80000a24 <_Z10IPChecksumPh>:
80000a24:	27bdffd8 	addiu	$29,$29,-40
80000a28:	afbf0024 	sw	$31,36($29)
80000a2c:	afbe0020 	sw	$30,32($29)
80000a30:	03a0f025 	or	$30,$29,$0
80000a34:	afc40028 	sw	$4,40($30)
80000a38:	8fc20028 	lw	$2,40($30)
80000a3c:	90420000 	lbu	$2,0($2)
80000a40:	00021080 	sll	$2,$2,0x2
80000a44:	3042003c 	andi	$2,$2,0x3c
80000a48:	afc20018 	sw	$2,24($30)
80000a4c:	afc00010 	sw	$0,16($30)
80000a50:	afc00014 	sw	$0,20($30)
80000a54:	8fc30014 	lw	$3,20($30)
80000a58:	8fc20018 	lw	$2,24($30)
80000a5c:	0062102b 	sltu	$2,$3,$2
80000a60:	10400012 	beqz	$2,80000aac <_Z10IPChecksumPh+0x88>
80000a64:	00000000 	sll	$0,$0,0x0
80000a68:	8fc30014 	lw	$3,20($30)
80000a6c:	2402000a 	addiu	$2,$0,10
80000a70:	10620009 	beq	$3,$2,80000a98 <_Z10IPChecksumPh+0x74>
80000a74:	00000000 	sll	$0,$0,0x0
80000a78:	8fc50014 	lw	$5,20($30)
80000a7c:	8fc40028 	lw	$4,40($30)
80000a80:	0c0001ba 	jal	800006e8 <_Z7getDataPKhm>
80000a84:	00000000 	sll	$0,$0,0x0
80000a88:	00401825 	or	$3,$2,$0
80000a8c:	8fc20010 	lw	$2,16($30)
80000a90:	00431021 	addu	$2,$2,$3
80000a94:	afc20010 	sw	$2,16($30)
80000a98:	8fc20014 	lw	$2,20($30)
80000a9c:	24420002 	addiu	$2,$2,2
80000aa0:	afc20014 	sw	$2,20($30)
80000aa4:	1000ffeb 	beqz	$0,80000a54 <_Z10IPChecksumPh+0x30>
80000aa8:	00000000 	sll	$0,$0,0x0
80000aac:	8fc30010 	lw	$3,16($30)
80000ab0:	3c020001 	lui	$2,0x1
80000ab4:	0062102b 	sltu	$2,$3,$2
80000ab8:	14400009 	bnez	$2,80000ae0 <_Z10IPChecksumPh+0xbc>
80000abc:	00000000 	sll	$0,$0,0x0
80000ac0:	8fc20010 	lw	$2,16($30)
80000ac4:	3043ffff 	andi	$3,$2,0xffff
80000ac8:	8fc20010 	lw	$2,16($30)
80000acc:	00021402 	srl	$2,$2,0x10
80000ad0:	00621021 	addu	$2,$3,$2
80000ad4:	afc20010 	sw	$2,16($30)
80000ad8:	1000fff4 	beqz	$0,80000aac <_Z10IPChecksumPh+0x88>
80000adc:	00000000 	sll	$0,$0,0x0
80000ae0:	8fc20010 	lw	$2,16($30)
80000ae4:	3042ffff 	andi	$2,$2,0xffff
80000ae8:	00021027 	nor	$2,$0,$2
80000aec:	3042ffff 	andi	$2,$2,0xffff
80000af0:	03c0e825 	or	$29,$30,$0
80000af4:	8fbf0024 	lw	$31,36($29)
80000af8:	8fbe0020 	lw	$30,32($29)
80000afc:	27bd0028 	addiu	$29,$29,40
80000b00:	03e00008 	jr	$31
80000b04:	00000000 	sll	$0,$0,0x0

80000b08 <_Z5htonlj>:
80000b08:	27bdfff8 	addiu	$29,$29,-8
80000b0c:	afbe0004 	sw	$30,4($29)
80000b10:	03a0f025 	or	$30,$29,$0
80000b14:	afc40008 	sw	$4,8($30)
80000b18:	8fc20008 	lw	$2,8($30)
80000b1c:	00021e02 	srl	$3,$2,0x18
80000b20:	8fc20008 	lw	$2,8($30)
80000b24:	00021202 	srl	$2,$2,0x8
80000b28:	3042ff00 	andi	$2,$2,0xff00
80000b2c:	00621825 	or	$3,$3,$2
80000b30:	8fc20008 	lw	$2,8($30)
80000b34:	00022200 	sll	$4,$2,0x8
80000b38:	3c0200ff 	lui	$2,0xff
80000b3c:	00821024 	and	$2,$4,$2
80000b40:	00621825 	or	$3,$3,$2
80000b44:	8fc20008 	lw	$2,8($30)
80000b48:	00021600 	sll	$2,$2,0x18
80000b4c:	00621025 	or	$2,$3,$2
80000b50:	03c0e825 	or	$29,$30,$0
80000b54:	8fbe0004 	lw	$30,4($29)
80000b58:	27bd0008 	addiu	$29,$29,8
80000b5c:	03e00008 	jr	$31
80000b60:	00000000 	sll	$0,$0,0x0

80000b64 <_Z5ntohlj>:
80000b64:	27bdfff8 	addiu	$29,$29,-8
80000b68:	afbe0004 	sw	$30,4($29)
80000b6c:	03a0f025 	or	$30,$29,$0
80000b70:	afc40008 	sw	$4,8($30)
80000b74:	8fc20008 	lw	$2,8($30)
80000b78:	00021e02 	srl	$3,$2,0x18
80000b7c:	8fc20008 	lw	$2,8($30)
80000b80:	00021202 	srl	$2,$2,0x8
80000b84:	3042ff00 	andi	$2,$2,0xff00
80000b88:	00621825 	or	$3,$3,$2
80000b8c:	8fc20008 	lw	$2,8($30)
80000b90:	00022200 	sll	$4,$2,0x8
80000b94:	3c0200ff 	lui	$2,0xff
80000b98:	00821024 	and	$2,$4,$2
80000b9c:	00621825 	or	$3,$3,$2
80000ba0:	8fc20008 	lw	$2,8($30)
80000ba4:	00021600 	sll	$2,$2,0x18
80000ba8:	00621025 	or	$2,$3,$2
80000bac:	03c0e825 	or	$29,$30,$0
80000bb0:	8fbe0004 	lw	$30,4($29)
80000bb4:	27bd0008 	addiu	$29,$29,8
80000bb8:	03e00008 	jr	$31
80000bbc:	00000000 	sll	$0,$0,0x0

80000bc0 <_Z5htonst>:
80000bc0:	27bdfff8 	addiu	$29,$29,-8
80000bc4:	afbe0004 	sw	$30,4($29)
80000bc8:	03a0f025 	or	$30,$29,$0
80000bcc:	00801025 	or	$2,$4,$0
80000bd0:	a7c20008 	sh	$2,8($30)
80000bd4:	97c20008 	lhu	$2,8($30)
80000bd8:	00021202 	srl	$2,$2,0x8
80000bdc:	3042ffff 	andi	$2,$2,0xffff
80000be0:	00021c00 	sll	$3,$2,0x10
80000be4:	00031c03 	sra	$3,$3,0x10
80000be8:	97c20008 	lhu	$2,8($30)
80000bec:	00021200 	sll	$2,$2,0x8
80000bf0:	00021400 	sll	$2,$2,0x10
80000bf4:	00021403 	sra	$2,$2,0x10
80000bf8:	00621025 	or	$2,$3,$2
80000bfc:	00021400 	sll	$2,$2,0x10
80000c00:	00021403 	sra	$2,$2,0x10
80000c04:	3042ffff 	andi	$2,$2,0xffff
80000c08:	03c0e825 	or	$29,$30,$0
80000c0c:	8fbe0004 	lw	$30,4($29)
80000c10:	27bd0008 	addiu	$29,$29,8
80000c14:	03e00008 	jr	$31
80000c18:	00000000 	sll	$0,$0,0x0

80000c1c <_Z5ntohst>:
80000c1c:	27bdfff8 	addiu	$29,$29,-8
80000c20:	afbe0004 	sw	$30,4($29)
80000c24:	03a0f025 	or	$30,$29,$0
80000c28:	00801025 	or	$2,$4,$0
80000c2c:	a7c20008 	sh	$2,8($30)
80000c30:	97c20008 	lhu	$2,8($30)
80000c34:	00021202 	srl	$2,$2,0x8
80000c38:	3042ffff 	andi	$2,$2,0xffff
80000c3c:	00021c00 	sll	$3,$2,0x10
80000c40:	00031c03 	sra	$3,$3,0x10
80000c44:	97c20008 	lhu	$2,8($30)
80000c48:	00021200 	sll	$2,$2,0x8
80000c4c:	00021400 	sll	$2,$2,0x10
80000c50:	00021403 	sra	$2,$2,0x10
80000c54:	00621025 	or	$2,$3,$2
80000c58:	00021400 	sll	$2,$2,0x10
80000c5c:	00021403 	sra	$2,$2,0x10
80000c60:	3042ffff 	andi	$2,$2,0xffff
80000c64:	03c0e825 	or	$29,$30,$0
80000c68:	8fbe0004 	lw	$30,4($29)
80000c6c:	27bd0008 	addiu	$29,$29,8
80000c70:	03e00008 	jr	$31
80000c74:	00000000 	sll	$0,$0,0x0

80000c78 <_Z7putcharc>:
80000c78:	27bdfff8 	addiu	$29,$29,-8
80000c7c:	afbe0004 	sw	$30,4($29)
80000c80:	03a0f025 	or	$30,$29,$0
80000c84:	00801025 	or	$2,$4,$0
80000c88:	a3c20008 	sb	$2,8($30)
80000c8c:	00000000 	sll	$0,$0,0x0
80000c90:	03c0e825 	or	$29,$30,$0
80000c94:	8fbe0004 	lw	$30,4($29)
80000c98:	27bd0008 	addiu	$29,$29,8
80000c9c:	03e00008 	jr	$31
80000ca0:	00000000 	sll	$0,$0,0x0

80000ca4 <_Z6printfPKc>:
80000ca4:	27bdfff8 	addiu	$29,$29,-8
80000ca8:	afbe0004 	sw	$30,4($29)
80000cac:	03a0f025 	or	$30,$29,$0
80000cb0:	afc40008 	sw	$4,8($30)
80000cb4:	00000000 	sll	$0,$0,0x0
80000cb8:	03c0e825 	or	$29,$30,$0
80000cbc:	8fbe0004 	lw	$30,4($29)
80000cc0:	27bd0008 	addiu	$29,$29,8
80000cc4:	03e00008 	jr	$31
80000cc8:	00000000 	sll	$0,$0,0x0

80000ccc <_Z6memsetPvcm>:
80000ccc:	27bdfff0 	addiu	$29,$29,-16
80000cd0:	afbe000c 	sw	$30,12($29)
80000cd4:	03a0f025 	or	$30,$29,$0
80000cd8:	afc40010 	sw	$4,16($30)
80000cdc:	00a01025 	or	$2,$5,$0
80000ce0:	afc60018 	sw	$6,24($30)
80000ce4:	a3c20014 	sb	$2,20($30)
80000ce8:	8fc20010 	lw	$2,16($30)
80000cec:	afc20000 	sw	$2,0($30)
80000cf0:	8fc20018 	lw	$2,24($30)
80000cf4:	2443ffff 	addiu	$3,$2,-1
80000cf8:	afc30018 	sw	$3,24($30)
80000cfc:	0002102b 	sltu	$2,$0,$2
80000d00:	304200ff 	andi	$2,$2,0xff
80000d04:	10400008 	beqz	$2,80000d28 <_Z6memsetPvcm+0x5c>
80000d08:	00000000 	sll	$0,$0,0x0
80000d0c:	8fc20000 	lw	$2,0($30)
80000d10:	24430001 	addiu	$3,$2,1
80000d14:	afc30000 	sw	$3,0($30)
80000d18:	93c30014 	lbu	$3,20($30)
80000d1c:	a0430000 	sb	$3,0($2)
80000d20:	1000fff3 	beqz	$0,80000cf0 <_Z6memsetPvcm+0x24>
80000d24:	00000000 	sll	$0,$0,0x0
80000d28:	00000000 	sll	$0,$0,0x0
80000d2c:	03c0e825 	or	$29,$30,$0
80000d30:	8fbe000c 	lw	$30,12($29)
80000d34:	27bd0010 	addiu	$29,$29,16
80000d38:	03e00008 	jr	$31
80000d3c:	00000000 	sll	$0,$0,0x0

80000d40 <_Z6memcpyPvS_m>:
80000d40:	27bdfff0 	addiu	$29,$29,-16
80000d44:	afbe000c 	sw	$30,12($29)
80000d48:	03a0f025 	or	$30,$29,$0
80000d4c:	afc40010 	sw	$4,16($30)
80000d50:	afc50014 	sw	$5,20($30)
80000d54:	afc60018 	sw	$6,24($30)
80000d58:	8fc20010 	lw	$2,16($30)
80000d5c:	afc20000 	sw	$2,0($30)
80000d60:	8fc20014 	lw	$2,20($30)
80000d64:	afc20004 	sw	$2,4($30)
80000d68:	8fc20018 	lw	$2,24($30)
80000d6c:	2443ffff 	addiu	$3,$2,-1
80000d70:	afc30018 	sw	$3,24($30)
80000d74:	0002102b 	sltu	$2,$0,$2
80000d78:	304200ff 	andi	$2,$2,0xff
80000d7c:	1040000b 	beqz	$2,80000dac <_Z6memcpyPvS_m+0x6c>
80000d80:	00000000 	sll	$0,$0,0x0
80000d84:	8fc30004 	lw	$3,4($30)
80000d88:	24620001 	addiu	$2,$3,1
80000d8c:	afc20004 	sw	$2,4($30)
80000d90:	8fc20000 	lw	$2,0($30)
80000d94:	24440001 	addiu	$4,$2,1
80000d98:	afc40000 	sw	$4,0($30)
80000d9c:	80630000 	lb	$3,0($3)
80000da0:	a0430000 	sb	$3,0($2)
80000da4:	1000fff0 	beqz	$0,80000d68 <_Z6memcpyPvS_m+0x28>
80000da8:	00000000 	sll	$0,$0,0x0
80000dac:	00000000 	sll	$0,$0,0x0
80000db0:	03c0e825 	or	$29,$30,$0
80000db4:	8fbe000c 	lw	$30,12($29)
80000db8:	27bd0010 	addiu	$29,$29,16
80000dbc:	03e00008 	jr	$31
80000dc0:	00000000 	sll	$0,$0,0x0

80000dc4 <_Z3minjj>:
80000dc4:	27bdfff8 	addiu	$29,$29,-8
80000dc8:	afbe0004 	sw	$30,4($29)
80000dcc:	03a0f025 	or	$30,$29,$0
80000dd0:	afc40008 	sw	$4,8($30)
80000dd4:	afc5000c 	sw	$5,12($30)
80000dd8:	8fc30008 	lw	$3,8($30)
80000ddc:	8fc2000c 	lw	$2,12($30)
80000de0:	0043102b 	sltu	$2,$2,$3
80000de4:	10400004 	beqz	$2,80000df8 <_Z3minjj+0x34>
80000de8:	00000000 	sll	$0,$0,0x0
80000dec:	8fc2000c 	lw	$2,12($30)
80000df0:	10000002 	beqz	$0,80000dfc <_Z3minjj+0x38>
80000df4:	00000000 	sll	$0,$0,0x0
80000df8:	8fc20008 	lw	$2,8($30)
80000dfc:	03c0e825 	or	$29,$30,$0
80000e00:	8fbe0004 	lw	$30,4($29)
80000e04:	27bd0008 	addiu	$29,$29,8
80000e08:	03e00008 	jr	$31
80000e0c:	00000000 	sll	$0,$0,0x0

80000e10 <main>:
80000e10:	27bdffe8 	addiu	$29,$29,-24
80000e14:	afbf0014 	sw	$31,20($29)
80000e18:	afbe0010 	sw	$30,16($29)
80000e1c:	03a0f025 	or	$30,$29,$0
80000e20:	3c028000 	lui	$2,0x8000
80000e24:	24440e60 	addiu	$4,$2,3680
80000e28:	0c000142 	jal	80000508 <puts>
80000e2c:	00000000 	sll	$0,$0,0x0
80000e30:	00001025 	or	$2,$0,$0
80000e34:	03c0e825 	or	$29,$30,$0
80000e38:	8fbf0014 	lw	$31,20($29)
80000e3c:	8fbe0010 	lw	$30,16($29)
80000e40:	27bd0018 	addiu	$29,$29,24
80000e44:	03e00008 	jr	$31
80000e48:	00000000 	sll	$0,$0,0x0
80000e4c:	00000000 	sll	$0,$0,0x0

Disassembly of section .reginfo:

80000e70 <.reginfo>:
80000e70:	e000001c 	sc	$0,28($0)
	...

Disassembly of section .MIPS.abiflags:

80000e88 <.MIPS.abiflags>:
80000e88:	01200000 	0x1200000
80000e8c:	02000101 	0x2000101
	...
80000e98:	00000001 	movf	$0,$0,$fcc0
80000e9c:	00000000 	sll	$0,$0,0x0

Disassembly of section .eh_frame:

80000ea0 <.eh_frame>:
80000ea0:	00000010 	mfhi	$0
80000ea4:	00000000 	sll	$0,$0,0x0
80000ea8:	00527a01 	0x527a01
80000eac:	011f7c01 	0x11f7c01
80000eb0:	001d0d0b 	0x1d0d0b
80000eb4:	00000020 	add	$0,$0,$0
80000eb8:	00000018 	mult	$0,$0
80000ebc:	80000398 	lb	$0,920($0)
80000ec0:	00000064 	0x64
80000ec4:	080e4400 	j	80391000 <_bss_end+0x38fdc0>
80000ec8:	44019e44 	0x44019e44
80000ecc:	48021e0d 	0x48021e0d
80000ed0:	de481d0d 	ldc3	$8,7437($18)
80000ed4:	0000000e 	0xe
80000ed8:	00000020 	add	$0,$0,$0
80000edc:	0000003c 	0x3c
80000ee0:	800003fc 	lb	$0,1020($0)
80000ee4:	00000058 	0x58
80000ee8:	080e4400 	j	80391000 <_bss_end+0x38fdc0>
80000eec:	44019e44 	0x44019e44
80000ef0:	0d7c1e0d 	jal	85f07834 <_bss_end+0x5f065f4>
80000ef4:	0ede481d 	jal	8b792074 <_bss_end+0xb790e34>
80000ef8:	00000000 	sll	$0,$0,0x0
80000efc:	00000024 	and	$0,$0,$0
80000f00:	00000060 	0x60
80000f04:	80000454 	lb	$0,1108($0)
80000f08:	000000b4 	teq	$0,$0,0x2
80000f0c:	200e4400 	addi	$14,$0,17408
80000f10:	9e019f48 	0x9e019f48
80000f14:	1e0d4402 	0x1e0d4402
80000f18:	1d0d9002 	0x1d0d9002
80000f1c:	0edfde4c 	jal	8b7f7930 <_bss_end+0xb7f66f0>
80000f20:	00000000 	sll	$0,$0,0x0
80000f24:	00000024 	and	$0,$0,$0
80000f28:	00000088 	0x88
80000f2c:	80000508 	lb	$0,1288($0)
80000f30:	00000064 	0x64
80000f34:	180e4400 	0x180e4400
80000f38:	9e019f48 	0x9e019f48
80000f3c:	1e0d4402 	0x1e0d4402
80000f40:	1d0d4002 	0x1d0d4002
80000f44:	0edfde4c 	jal	8b7f7930 <_bss_end+0xb7f66f0>
80000f48:	00000000 	sll	$0,$0,0x0
80000f4c:	00000024 	and	$0,$0,$0
80000f50:	000000b0 	tge	$0,$0,0x2
80000f54:	8000056c 	lb	$0,1388($0)
80000f58:	000000f4 	teq	$0,$0,0x3
80000f5c:	200e4400 	addi	$14,$0,17408
80000f60:	9e019f48 	0x9e019f48
80000f64:	1e0d4402 	0x1e0d4402
80000f68:	1d0dd002 	0x1d0dd002
80000f6c:	0edfde4c 	jal	8b7f7930 <_bss_end+0xb7f66f0>
80000f70:	00000000 	sll	$0,$0,0x0
80000f74:	00000020 	add	$0,$0,$0
80000f78:	000000d8 	0xd8
80000f7c:	80000660 	lb	$0,1632($0)
80000f80:	0000003c 	0x3c
80000f84:	180e4400 	0x180e4400
80000f88:	9e019f48 	0x9e019f48
80000f8c:	1e0d4402 	0x1e0d4402
80000f90:	4c1d0d58 	0x4c1d0d58
80000f94:	000edfde 	0xedfde
80000f98:	00000020 	add	$0,$0,$0
80000f9c:	000000fc 	0xfc
80000fa0:	8000069c 	lb	$0,1692($0)
80000fa4:	0000004c 	syscall	0x1
80000fa8:	180e4400 	0x180e4400
80000fac:	9e019f48 	0x9e019f48
80000fb0:	1e0d4402 	0x1e0d4402
80000fb4:	4c1d0d68 	0x4c1d0d68
80000fb8:	000edfde 	0xedfde
80000fbc:	00000020 	add	$0,$0,$0
80000fc0:	00000120 	0x120
80000fc4:	800006e8 	lb	$0,1768($0)
80000fc8:	00000054 	0x54
80000fcc:	080e4400 	j	80391000 <_bss_end+0x38fdc0>
80000fd0:	44019e44 	0x44019e44
80000fd4:	0d781e0d 	jal	85e07834 <_bss_end+0x5e065f4>
80000fd8:	0ede481d 	jal	8b792074 <_bss_end+0xb790e34>
80000fdc:	00000000 	sll	$0,$0,0x0
80000fe0:	00000020 	add	$0,$0,$0
80000fe4:	00000144 	0x144
80000fe8:	8000073c 	lb	$0,1852($0)
80000fec:	00000068 	0x68
80000ff0:	080e4400 	j	80391000 <_bss_end+0x38fdc0>
80000ff4:	44019e44 	0x44019e44
80000ff8:	4c021e0d 	0x4c021e0d
80000ffc:	de481d0d 	ldc3	$8,7437($18)
80001000:	0000000e 	0xe
80001004:	00000020 	add	$0,$0,$0
80001008:	00000168 	0x168
8000100c:	800007a4 	lb	$0,1956($0)
80001010:	000000f8 	0xf8
80001014:	080e4400 	j	80391000 <_bss_end+0x38fdc0>
80001018:	44019e44 	0x44019e44
8000101c:	dc021e0d 	ldc3	$2,7693($0)
80001020:	de481d0d 	ldc3	$8,7437($18)
80001024:	0000000e 	0xe
80001028:	00000024 	and	$0,$0,$0
8000102c:	0000018c 	syscall	0x6
80001030:	8000089c 	lb	$0,2204($0)
80001034:	0000008c 	syscall	0x2
80001038:	180e4400 	0x180e4400
8000103c:	9e019f48 	0x9e019f48
80001040:	1e0d4402 	0x1e0d4402
80001044:	1d0d6802 	0x1d0d6802
80001048:	0edfde4c 	jal	8b7f7930 <_bss_end+0xb7f66f0>
8000104c:	00000000 	sll	$0,$0,0x0
80001050:	00000024 	and	$0,$0,$0
80001054:	000001b4 	teq	$0,$0,0x6
80001058:	80000928 	lb	$0,2344($0)
8000105c:	00000090 	0x90
80001060:	200e4400 	addi	$14,$0,17408
80001064:	9e019f48 	0x9e019f48
80001068:	1e0d4402 	0x1e0d4402
8000106c:	1d0d6c02 	0x1d0d6c02
80001070:	0edfde4c 	jal	8b7f7930 <_bss_end+0xb7f66f0>
80001074:	00000000 	sll	$0,$0,0x0
80001078:	00000024 	and	$0,$0,$0
8000107c:	000001dc 	0x1dc
80001080:	800009b8 	lb	$0,2488($0)
80001084:	0000006c 	0x6c
80001088:	180e4400 	0x180e4400
8000108c:	9e019f48 	0x9e019f48
80001090:	1e0d4402 	0x1e0d4402
80001094:	1d0d4802 	0x1d0d4802
80001098:	0edfde4c 	jal	8b7f7930 <_bss_end+0xb7f66f0>
8000109c:	00000000 	sll	$0,$0,0x0
800010a0:	00000024 	and	$0,$0,$0
800010a4:	00000204 	0x204
800010a8:	80000a24 	lb	$0,2596($0)
800010ac:	000000e4 	0xe4
800010b0:	280e4400 	slti	$14,$0,17408
800010b4:	9e019f48 	0x9e019f48
800010b8:	1e0d4402 	0x1e0d4402
800010bc:	1d0dc002 	0x1d0dc002
800010c0:	0edfde4c 	jal	8b7f7930 <_bss_end+0xb7f66f0>
800010c4:	00000000 	sll	$0,$0,0x0
800010c8:	00000020 	add	$0,$0,$0
800010cc:	0000022c 	0x22c
800010d0:	80000b08 	lb	$0,2824($0)
800010d4:	0000005c 	0x5c
800010d8:	080e4400 	j	80391000 <_bss_end+0x38fdc0>
800010dc:	44019e44 	0x44019e44
800010e0:	40021e0d 	0x40021e0d
800010e4:	de481d0d 	ldc3	$8,7437($18)
800010e8:	0000000e 	0xe
800010ec:	00000020 	add	$0,$0,$0
800010f0:	00000250 	0x250
800010f4:	80000b64 	lb	$0,2916($0)
800010f8:	0000005c 	0x5c
800010fc:	080e4400 	j	80391000 <_bss_end+0x38fdc0>
80001100:	44019e44 	0x44019e44
80001104:	40021e0d 	0x40021e0d
80001108:	de481d0d 	ldc3	$8,7437($18)
8000110c:	0000000e 	0xe
80001110:	00000020 	add	$0,$0,$0
80001114:	00000274 	teq	$0,$0,0x9
80001118:	80000bc0 	lb	$0,3008($0)
8000111c:	0000005c 	0x5c
80001120:	080e4400 	j	80391000 <_bss_end+0x38fdc0>
80001124:	44019e44 	0x44019e44
80001128:	40021e0d 	0x40021e0d
8000112c:	de481d0d 	ldc3	$8,7437($18)
80001130:	0000000e 	0xe
80001134:	00000020 	add	$0,$0,$0
80001138:	00000298 	0x298
8000113c:	80000c1c 	lb	$0,3100($0)
80001140:	0000005c 	0x5c
80001144:	080e4400 	j	80391000 <_bss_end+0x38fdc0>
80001148:	44019e44 	0x44019e44
8000114c:	40021e0d 	0x40021e0d
80001150:	de481d0d 	ldc3	$8,7437($18)
80001154:	0000000e 	0xe
80001158:	00000020 	add	$0,$0,$0
8000115c:	000002bc 	0x2bc
80001160:	80000c78 	lb	$0,3192($0)
80001164:	0000002c 	0x2c
80001168:	080e4400 	j	80391000 <_bss_end+0x38fdc0>
8000116c:	44019e44 	0x44019e44
80001170:	0d501e0d 	jal	85407834 <_bss_end+0x54065f4>
80001174:	0ede481d 	jal	8b792074 <_bss_end+0xb790e34>
80001178:	00000000 	sll	$0,$0,0x0
8000117c:	00000020 	add	$0,$0,$0
80001180:	000002e0 	0x2e0
80001184:	80000ca4 	lb	$0,3236($0)
80001188:	00000028 	0x28
8000118c:	080e4400 	j	80391000 <_bss_end+0x38fdc0>
80001190:	44019e44 	0x44019e44
80001194:	0d4c1e0d 	jal	85307834 <_bss_end+0x53065f4>
80001198:	0ede481d 	jal	8b792074 <_bss_end+0xb790e34>
8000119c:	00000000 	sll	$0,$0,0x0
800011a0:	00000020 	add	$0,$0,$0
800011a4:	00000304 	0x304
800011a8:	80000ccc 	lb	$0,3276($0)
800011ac:	00000074 	teq	$0,$0,0x1
800011b0:	100e4400 	beq	$0,$14,800121b4 <_bss_end+0x10f74>
800011b4:	44019e44 	0x44019e44
800011b8:	58021e0d 	0x58021e0d
800011bc:	de481d0d 	ldc3	$8,7437($18)
800011c0:	0000000e 	0xe
800011c4:	00000020 	add	$0,$0,$0
800011c8:	00000328 	0x328
800011cc:	80000d40 	lb	$0,3392($0)
800011d0:	00000084 	0x84
800011d4:	100e4400 	beq	$0,$14,800121d8 <_bss_end+0x10f98>
800011d8:	44019e44 	0x44019e44
800011dc:	68021e0d 	0x68021e0d
800011e0:	de481d0d 	ldc3	$8,7437($18)
800011e4:	0000000e 	0xe
800011e8:	00000020 	add	$0,$0,$0
800011ec:	0000034c 	syscall	0xd
800011f0:	80000dc4 	lb	$0,3524($0)
800011f4:	0000004c 	syscall	0x1
800011f8:	080e4400 	j	80391000 <_bss_end+0x38fdc0>
800011fc:	44019e44 	0x44019e44
80001200:	0d701e0d 	jal	85c07834 <_bss_end+0x5c065f4>
80001204:	0ede481d 	jal	8b792074 <_bss_end+0xb790e34>
80001208:	00000000 	sll	$0,$0,0x0
8000120c:	00000020 	add	$0,$0,$0
80001210:	00000370 	tge	$0,$0,0xd
80001214:	80000e10 	lb	$0,3600($0)
80001218:	0000003c 	0x3c
8000121c:	180e4400 	0x180e4400
80001220:	9e019f48 	0x9e019f48
80001224:	1e0d4402 	0x1e0d4402
80001228:	4c1d0d58 	0x4c1d0d58
8000122c:	000edfde 	0xedfde

Disassembly of section .data:

80001230 <UART_RX>:
80001230:	bfd003f8 	cache	0x10,1016($30)

80001234 <UART_TX>:
80001234:	bfd003f8 	cache	0x10,1016($30)

80001238 <UART_STAT>:
80001238:	bfd003fc 	cache	0x10,1020($30)
8000123c:	00000000 	sll	$0,$0,0x0

Disassembly of section .pdr:

00000000 <.pdr>:
   0:	80000398 	lb	$0,920($0)
   4:	40000000 	mfc0	$0,c0_index
   8:	fffffffc 	sdc3	$31,-4($31)
	...
  14:	00000008 	jr	$0
  18:	0000001e 	0x1e
  1c:	0000001f 	0x1f
  20:	800003fc 	lb	$0,1020($0)
  24:	40000000 	mfc0	$0,c0_index
  28:	fffffffc 	sdc3	$31,-4($31)
	...
  34:	00000008 	jr	$0
  38:	0000001e 	0x1e
  3c:	0000001f 	0x1f
  40:	80000454 	lb	$0,1108($0)
  44:	c0000000 	ll	$0,0($0)
  48:	fffffffc 	sdc3	$31,-4($31)
	...
  54:	00000020 	add	$0,$0,$0
  58:	0000001e 	0x1e
  5c:	0000001f 	0x1f
  60:	80000508 	lb	$0,1288($0)
  64:	c0000000 	ll	$0,0($0)
  68:	fffffffc 	sdc3	$31,-4($31)
	...
  74:	00000018 	mult	$0,$0
  78:	0000001e 	0x1e
  7c:	0000001f 	0x1f
  80:	8000056c 	lb	$0,1388($0)
  84:	c0000000 	ll	$0,0($0)
  88:	fffffffc 	sdc3	$31,-4($31)
	...
  94:	00000020 	add	$0,$0,$0
  98:	0000001e 	0x1e
  9c:	0000001f 	0x1f
  a0:	80000660 	lb	$0,1632($0)
  a4:	c0000000 	ll	$0,0($0)
  a8:	fffffffc 	sdc3	$31,-4($31)
	...
  b4:	00000018 	mult	$0,$0
  b8:	0000001e 	0x1e
  bc:	0000001f 	0x1f
  c0:	8000069c 	lb	$0,1692($0)
  c4:	c0000000 	ll	$0,0($0)
  c8:	fffffffc 	sdc3	$31,-4($31)
	...
  d4:	00000018 	mult	$0,$0
  d8:	0000001e 	0x1e
  dc:	0000001f 	0x1f
  e0:	800006e8 	lb	$0,1768($0)
  e4:	40000000 	mfc0	$0,c0_index
  e8:	fffffffc 	sdc3	$31,-4($31)
	...
  f4:	00000008 	jr	$0
  f8:	0000001e 	0x1e
  fc:	0000001f 	0x1f
 100:	8000073c 	lb	$0,1852($0)
 104:	40000000 	mfc0	$0,c0_index
 108:	fffffffc 	sdc3	$31,-4($31)
	...
 114:	00000008 	jr	$0
 118:	0000001e 	0x1e
 11c:	0000001f 	0x1f
 120:	800007a4 	lb	$0,1956($0)
 124:	40000000 	mfc0	$0,c0_index
 128:	fffffffc 	sdc3	$31,-4($31)
	...
 134:	00000008 	jr	$0
 138:	0000001e 	0x1e
 13c:	0000001f 	0x1f
 140:	8000089c 	lb	$0,2204($0)
 144:	c0000000 	ll	$0,0($0)
 148:	fffffffc 	sdc3	$31,-4($31)
	...
 154:	00000018 	mult	$0,$0
 158:	0000001e 	0x1e
 15c:	0000001f 	0x1f
 160:	80000928 	lb	$0,2344($0)
 164:	c0000000 	ll	$0,0($0)
 168:	fffffffc 	sdc3	$31,-4($31)
	...
 174:	00000020 	add	$0,$0,$0
 178:	0000001e 	0x1e
 17c:	0000001f 	0x1f
 180:	800009b8 	lb	$0,2488($0)
 184:	c0000000 	ll	$0,0($0)
 188:	fffffffc 	sdc3	$31,-4($31)
	...
 194:	00000018 	mult	$0,$0
 198:	0000001e 	0x1e
 19c:	0000001f 	0x1f
 1a0:	80000a24 	lb	$0,2596($0)
 1a4:	c0000000 	ll	$0,0($0)
 1a8:	fffffffc 	sdc3	$31,-4($31)
	...
 1b4:	00000028 	0x28
 1b8:	0000001e 	0x1e
 1bc:	0000001f 	0x1f
 1c0:	80000b08 	lb	$0,2824($0)
 1c4:	40000000 	mfc0	$0,c0_index
 1c8:	fffffffc 	sdc3	$31,-4($31)
	...
 1d4:	00000008 	jr	$0
 1d8:	0000001e 	0x1e
 1dc:	0000001f 	0x1f
 1e0:	80000b64 	lb	$0,2916($0)
 1e4:	40000000 	mfc0	$0,c0_index
 1e8:	fffffffc 	sdc3	$31,-4($31)
	...
 1f4:	00000008 	jr	$0
 1f8:	0000001e 	0x1e
 1fc:	0000001f 	0x1f
 200:	80000bc0 	lb	$0,3008($0)
 204:	40000000 	mfc0	$0,c0_index
 208:	fffffffc 	sdc3	$31,-4($31)
	...
 214:	00000008 	jr	$0
 218:	0000001e 	0x1e
 21c:	0000001f 	0x1f
 220:	80000c1c 	lb	$0,3100($0)
 224:	40000000 	mfc0	$0,c0_index
 228:	fffffffc 	sdc3	$31,-4($31)
	...
 234:	00000008 	jr	$0
 238:	0000001e 	0x1e
 23c:	0000001f 	0x1f
 240:	80000c78 	lb	$0,3192($0)
 244:	40000000 	mfc0	$0,c0_index
 248:	fffffffc 	sdc3	$31,-4($31)
	...
 254:	00000008 	jr	$0
 258:	0000001e 	0x1e
 25c:	0000001f 	0x1f
 260:	80000ca4 	lb	$0,3236($0)
 264:	40000000 	mfc0	$0,c0_index
 268:	fffffffc 	sdc3	$31,-4($31)
	...
 274:	00000008 	jr	$0
 278:	0000001e 	0x1e
 27c:	0000001f 	0x1f
 280:	80000ccc 	lb	$0,3276($0)
 284:	40000000 	mfc0	$0,c0_index
 288:	fffffffc 	sdc3	$31,-4($31)
	...
 294:	00000010 	mfhi	$0
 298:	0000001e 	0x1e
 29c:	0000001f 	0x1f
 2a0:	80000d40 	lb	$0,3392($0)
 2a4:	40000000 	mfc0	$0,c0_index
 2a8:	fffffffc 	sdc3	$31,-4($31)
	...
 2b4:	00000010 	mfhi	$0
 2b8:	0000001e 	0x1e
 2bc:	0000001f 	0x1f
 2c0:	80000dc4 	lb	$0,3524($0)
 2c4:	40000000 	mfc0	$0,c0_index
 2c8:	fffffffc 	sdc3	$31,-4($31)
	...
 2d4:	00000008 	jr	$0
 2d8:	0000001e 	0x1e
 2dc:	0000001f 	0x1f
 2e0:	80000e10 	lb	$0,3600($0)
 2e4:	c0000000 	ll	$0,0($0)
 2e8:	fffffffc 	sdc3	$31,-4($31)
	...
 2f4:	00000018 	mult	$0,$0
 2f8:	0000001e 	0x1e
 2fc:	0000001f 	0x1f

Disassembly of section .comment:

00000000 <.comment>:
   0:	3a434347 	xori	$3,$18,0x4347
   4:	62552820 	0x62552820
   8:	75746e75 	jalx	5d1b9d4 <__start-0x7a2e462c>
   c:	342e3720 	ori	$14,$1,0x3720
  10:	312d302e 	andi	$13,$9,0x302e
  14:	6e756275 	0x6e756275
  18:	7e317574 	0x7e317574
  1c:	302e3831 	andi	$14,$1,0x3831
  20:	29312e34 	slti	$17,$9,11828
  24:	342e3720 	ori	$14,$1,0x3720
  28:	Address 0x0000000000000028 is out of bounds.


Disassembly of section .gnu.attributes:

00000000 <.gnu.attributes>:
   0:	00000f41 	0xf41
   4:	756e6700 	jalx	5b99c00 <__start-0x7a466400>
   8:	00070100 	sll	$0,$7,0x4
   c:	02040000 	0x2040000

Disassembly of section .rodata:

80000e50 <.rodata>:
80000e50:	00005442 	srl	$10,$0,0x11
80000e54:	00204c41 	0x204c41
	...
80000e60:	00005748 	0x5748
	...

Disassembly of section .debug_info:

00000000 <.debug_info>:
   0:	000001b1 	tgeu	$0,$0,0x6
   4:	00000004 	sllv	$0,$0,$0
   8:	01040000 	0x1040000
   c:	00000017 	0x17
  10:	00011204 	0x11204
  14:	00016f00 	sll	$13,$1,0x1c
	...
  24:	06010200 	bgez	$16,828 <__start-0x7ffff7d8>
  28:	000000e9 	0xe9
  2c:	65050202 	0x65050202
  30:	03000001 	movf	$0,$24,$fcc0
  34:	6e690504 	0x6e690504
  38:	08020074 	j	801d0 <__start-0x7ff7fe30>
  3c:	00014705 	0x14705
  40:	013f0400 	0x13f0400
  44:	2e020000 	sltiu	$2,$16,0
  48:	0000004c 	syscall	0x1
  4c:	e7080102 	swc1	$f8,258($24)
  50:	02000000 	0x2000000
  54:	00ff0702 	0xff0702
  58:	ce040000 	pref	0x4,0($16)
  5c:	02000001 	movf	$0,$16,$fcc0
  60:	00006a34 	teq	$0,$0,0x1a8
  64:	005a0500 	0x5a0500
  68:	04020000 	bltzl	$0,6c <__start-0x7fffff94>
  6c:	00013207 	0x13207
  70:	07080200 	tgei	$24,512
  74:	00000128 	0x128
  78:	0001dc06 	0x1dc06
  7c:	89040100 	lwl	$4,256($8)
  80:	05000000 	bltz	$8,84 <__start-0x7fffff7c>
  84:	00123003 	sra	$6,$18,0x0
  88:	65040780 	0x65040780
  8c:	06000000 	bltz	$16,90 <__start-0x7fffff70>
  90:	00000000 	sll	$0,$0,0x0
  94:	00890501 	0x890501
  98:	03050000 	0x3050000
  9c:	80001234 	lb	$0,4660($0)
  a0:	00000d06 	0xd06
  a4:	89060100 	lwl	$6,256($8)
  a8:	05000000 	bltz	$8,ac <__start-0x7fffff54>
  ac:	00123803 	sra	$7,$18,0x0
  b0:	00080880 	sll	$1,$8,0x2
  b4:	42010000 	c0	0x10000
  b8:	8000069c 	lb	$0,1692($0)
  bc:	0000004c 	syscall	0x1
  c0:	00d59c01 	0xd59c01
  c4:	65090000 	0x65090000
  c8:	01006370 	tge	$8,$0,0x18d
  cc:	00005a42 	srl	$11,$0,0x9
  d0:	00910200 	0x910200
  d4:	01550a00 	0x1550a00
  d8:	34010000 	ori	$1,$0,0x0
  dc:	80000660 	lb	$0,1632($0)
  e0:	0000003c 	0x3c
  e4:	e4089c01 	swc1	$f8,-25599($0)
  e8:	01000001 	movf	$0,$8,$fcc0
  ec:	00056c26 	0x56c26
  f0:	0000f480 	sll	$30,$0,0x12
  f4:	249c0100 	addiu	$28,$4,256
  f8:	09000001 	j	4000004 <__start-0x7bfffffc>
  fc:	006d756e 	0x6d756e
 100:	005a2601 	0x5a2601
 104:	91020000 	lbu	$2,0($8)
 108:	00690b00 	0x690b00
 10c:	00332701 	0x332701
 110:	91020000 	lbu	$2,0($8)
 114:	00fa0c70 	tge	$7,$26,0x31
 118:	27010000 	addiu	$1,$24,0
 11c:	00000033 	tltu	$0,$0
 120:	00749102 	0x749102
 124:	0001d708 	0x1d708
 128:	08200100 	j	800400 <__start-0x7f7ffc00>
 12c:	64800005 	0x64800005
 130:	01000000 	0x1000000
 134:	0001469c 	0x1469c
 138:	00730900 	0x730900
 13c:	01462001 	0x1462001
 140:	91020000 	lbu	$2,0($8)
 144:	04070000 	0x4070000
 148:	00000153 	0x153
 14c:	f0060102 	0xf0060102
 150:	0d000000 	jal	4000000 <__start-0x7c000000>
 154:	0000014c 	syscall	0x5
 158:	0001210e 	0x1210e
 15c:	5a140100 	0x5a140100
 160:	54000000 	bnezl	$0,164 <__start-0x7ffffe9c>
 164:	b4800004 	0xb4800004
 168:	01000000 	0x1000000
 16c:	0001809c 	0x1809c
 170:	656c0b00 	0x656c0b00
 174:	1501006e 	bne	$8,$1,330 <__start-0x7ffffcd0>
 178:	0000005a 	0x5a
 17c:	00709102 	0x709102
 180:	0000f50f 	0xf50f
 184:	410e0100 	0x410e0100
 188:	fc000000 	sdc3	$0,0($0)
 18c:	58800003 	blezl	$4,19c <__start-0x7ffffe64>
 190:	01000000 	0x1000000
 194:	0160109c 	0x160109c
 198:	08010000 	j	40000 <__start-0x7ffc0000>
 19c:	80000398 	lb	$0,920($0)
 1a0:	00000064 	0x64
 1a4:	63099c01 	0x63099c01
 1a8:	08010068 	j	401a0 <__start-0x7ffbfe60>
 1ac:	0000014c 	syscall	0x5
 1b0:	00009102 	srl	$18,$0,0x4
 1b4:	00043c00 	sll	$7,$4,0x10
 1b8:	02000400 	0x2000400
 1bc:	04000001 	bltz	$0,1c4 <__start-0x7ffffe3c>
 1c0:	00001701 	0x1701
 1c4:	02e40400 	0x2e40400
 1c8:	016f0000 	0x16f0000
 1cc:	00400000 	0x400000
 1d0:	00000000 	sll	$0,$0,0x0
 1d4:	01190000 	0x1190000
 1d8:	01020000 	0x1020000
 1dc:	0000e906 	0xe906
 1e0:	05020200 	bltzl	$8,9e4 <__start-0x7ffff61c>
 1e4:	00000165 	0x165
 1e8:	69050403 	0x69050403
 1ec:	0200746e 	0x200746e
 1f0:	01470508 	0x1470508
 1f4:	3f040000 	0x3f040000
 1f8:	02000001 	movf	$0,$16,$fcc0
 1fc:	0000512e 	0x512e
 200:	00410500 	0x410500
 204:	01020000 	0x1020000
 208:	0000e708 	0xe708
 20c:	02ad0400 	0x2ad0400
 210:	31020000 	andi	$2,$8,0x0
 214:	00000063 	0x63
 218:	ff070202 	sdc3	$7,514($24)
 21c:	04000000 	bltz	$0,220 <__start-0x7ffffde0>
 220:	000001ce 	0x1ce
 224:	00753402 	0x753402
 228:	04020000 	bltzl	$0,22c <__start-0x7ffffdd4>
 22c:	00013207 	0x13207
 230:	07080200 	tgei	$24,512
 234:	00000128 	0x128
 238:	00021704 	0x21704
 23c:	8e060300 	lw	$6,768($16)
 240:	02000000 	0x2000000
 244:	012d0704 	0x12d0704
 248:	6d060000 	0x6d060000
 24c:	01006e69 	0x1006e69
 250:	0002db5b 	0x2db5b
 254:	00007500 	sll	$14,$0,0x14
 258:	000dc400 	sll	$24,$13,0x10
 25c:	00004c80 	sll	$9,$0,0x12
 260:	cb9c0100 	lwc2	$28,256($28)
 264:	07000000 	bltz	$24,268 <__start-0x7ffffd98>
 268:	5b010078 	0x5b010078
 26c:	00000075 	0x75
 270:	07009102 	bltz	$24,fffe467c <_bss_end+0x7ffe343c>
 274:	5b010079 	0x5b010079
 278:	00000075 	0x75
 27c:	00049102 	srl	$18,$4,0x4
 280:	00023908 	0x23908
 284:	66540100 	0x66540100
 288:	40000002 	mfc0	$0,$0,2
 28c:	8480000d 	lh	$0,13($4)
 290:	01000000 	0x1000000
 294:	00012b9c 	0x12b9c
 298:	73640700 	0x73640700
 29c:	54010074 	bnel	$0,$1,470 <__start-0x7ffffb90>
 2a0:	0000012b 	0x12b
 2a4:	07009102 	bltz	$24,fffe46b0 <_bss_end+0x7ffe3470>
 2a8:	00637273 	tltu	$3,$3,0x1c9
 2ac:	012b5401 	0x12b5401
 2b0:	91020000 	lbu	$2,0($8)
 2b4:	656c0704 	0x656c0704
 2b8:	5401006e 	bnel	$0,$1,474 <__start-0x7ffffb8c>
 2bc:	00000083 	sra	$0,$0,0x2
 2c0:	09089102 	j	4224408 <__start-0x7bddbbf8>
 2c4:	00000332 	tlt	$0,$0,0xc
 2c8:	012d5601 	0x12d5601
 2cc:	91020000 	lbu	$2,0($8)
 2d0:	03220970 	tge	$25,$2,0x25
 2d4:	56010000 	bnel	$16,$1,2d8 <__start-0x7ffffd28>
 2d8:	0000012d 	0x12d
 2dc:	00749102 	0x749102
 2e0:	040b040a 	tltiu	$0,1034
 2e4:	00000133 	tltu	$0,$0,0x4
 2e8:	f0060102 	0xf0060102
 2ec:	05000000 	bltz	$8,2f0 <__start-0x7ffffd10>
 2f0:	00000133 	tltu	$0,$0,0x4
 2f4:	00025f08 	0x25f08
 2f8:	fd4d0100 	sdc3	$13,256($10)
 2fc:	cc000001 	pref	0x0,1($0)
 300:	7480000c 	jalx	2000030 <__start-0x7dffffd0>
 304:	01000000 	0x1000000
 308:	00018c9c 	0x18c9c
 30c:	00730700 	0x730700
 310:	012b4d01 	0x12b4d01
 314:	91020000 	lbu	$2,0($8)
 318:	00630700 	0x630700
 31c:	01334d01 	0x1334d01
 320:	91020000 	lbu	$2,0($8)
 324:	656c0704 	0x656c0704
 328:	4d01006e 	bc3t	4e4 <__start-0x7ffffb1c>
 32c:	00000083 	sra	$0,$0,0x2
 330:	0c089102 	jal	224408 <__start-0x7fddbbf8>
 334:	01007363 	0x1007363
 338:	00012d4f 	0x12d4f
 33c:	70910200 	0x70910200
 340:	02750800 	0x2750800
 344:	4b010000 	c2	0x1010000
 348:	00000246 	0x246
 34c:	80000ca4 	lb	$0,3236($0)
 350:	00000028 	0x28
 354:	01b39c01 	0x1b39c01
 358:	73070000 	madd	$24,$7
 35c:	4b010074 	c2	0x1010074
 360:	000001b3 	tltu	$0,$0,0x6
 364:	00009102 	srl	$18,$0,0x4
 368:	013a040b 	0x13a040b
 36c:	1e080000 	0x1e080000
 370:	01000002 	0x1000002
 374:	0001f149 	0x1f149
 378:	000c7800 	sll	$15,$12,0x0
 37c:	00002c80 	sll	$5,$0,0x12
 380:	df9c0100 	ldc3	$28,256($28)
 384:	07000001 	bltz	$24,38c <__start-0x7ffffc74>
 388:	49010063 	bc2t	518 <__start-0x7ffffae8>
 38c:	00000133 	tltu	$0,$0,0x4
 390:	00009102 	srl	$18,$0,0x4
 394:	00020b0d 	break	0x2,0x2c
 398:	a3440100 	sb	$4,256($26)
 39c:	58000002 	blezl	$0,3a8 <__start-0x7ffffc58>
 3a0:	1c000000 	bgtz	$0,3a4 <__start-0x7ffffc5c>
 3a4:	5c80000c 	bgtzl	$4,3d8 <__start-0x7ffffc28>
 3a8:	01000000 	0x1000000
 3ac:	00020a9c 	0x20a9c
 3b0:	736e0700 	0x736e0700
 3b4:	58440100 	0x58440100
 3b8:	02000000 	0x2000000
 3bc:	0d000091 	jal	4000244 <__start-0x7bfffdbc>
 3c0:	00000240 	sll	$0,$0,0x9
 3c4:	03113f01 	0x3113f01
 3c8:	00580000 	0x580000
 3cc:	0bc00000 	j	f000000 <__start-0x71000000>
 3d0:	005c8000 	0x5c8000
 3d4:	9c010000 	0x9c010000
 3d8:	00000235 	0x235
 3dc:	00736807 	srav	$13,$19,$3
 3e0:	00583f01 	0x583f01
 3e4:	91020000 	lbu	$2,0($8)
 3e8:	eb0d0000 	swc2	$13,0($24)
 3ec:	01000001 	movf	$0,$8,$fcc0
 3f0:	0003283a 	0x3283a
 3f4:	00006a00 	sll	$13,$0,0x8
 3f8:	000b6400 	sll	$12,$11,0x10
 3fc:	00005c80 	sll	$11,$0,0x12
 400:	609c0100 	0x609c0100
 404:	07000002 	bltz	$24,410 <__start-0x7ffffbf0>
 408:	01006c6e 	0x1006c6e
 40c:	00006a3a 	0x6a3a
 410:	00910200 	0x910200
 414:	03020d00 	0x3020d00
 418:	35010000 	ori	$1,$8,0x0
 41c:	00000338 	0x338
 420:	0000006a 	0x6a
 424:	80000b08 	lb	$0,2824($0)
 428:	0000005c 	0x5c
 42c:	028b9c01 	0x28b9c01
 430:	68070000 	0x68070000
 434:	3501006c 	ori	$1,$8,0x6c
 438:	0000006a 	0x6a
 43c:	00009102 	srl	$18,$0,0x4
 440:	0003420e 	0x3420e
 444:	ca270100 	lwc2	$7,256($17)
 448:	58000002 	blezl	$0,454 <__start-0x7ffffbac>
 44c:	24000000 	addiu	$0,$0,0
 450:	e480000a 	swc1	$f0,10($4)
 454:	01000000 	0x1000000
 458:	0002e59c 	0x2e59c
 45c:	02530f00 	0x2530f00
 460:	27010000 	addiu	$1,$24,0
 464:	000002e5 	0x2e5
 468:	0c009102 	jal	24408 <__start-0x7ffdbbf8>
 46c:	2901006e 	slti	$1,$8,110
 470:	0000006a 	0x6a
 474:	0c709102 	jal	1c24408 <__start-0x7e3dbbf8>
 478:	2b010078 	slti	$1,$24,120
 47c:	0000006a 	0x6a
 480:	10689102 	beq	$3,$8,fffe488c <_bss_end+0x7ffe364c>
 484:	80000a50 	lb	$0,2640($0)
 488:	0000005c 	0x5c
 48c:	0100690c 	syscall	0x401a4
 490:	00006a2c 	0x6a2c
 494:	6c910200 	0x6c910200
 498:	040b0000 	tltiu	$0,0
 49c:	00000041 	0x41
 4a0:	00025a0e 	0x25a0e
 4a4:	f0220100 	0xf0220100
 4a8:	6a000002 	0x6a000002
 4ac:	b8000000 	swr	$0,0($0)
 4b0:	6c800009 	0x6c800009
 4b4:	01000000 	0x1000000
 4b8:	0003259c 	0x3259c
 4bc:	02c50f00 	0x2c50f00
 4c0:	22010000 	addi	$1,$16,0
 4c4:	0000006a 	0x6a
 4c8:	07009102 	bltz	$24,fffe48d4 <_bss_end+0x7ffe3694>
 4cc:	006e656c 	0x6e656c
 4d0:	00332201 	0x332201
 4d4:	91020000 	lbu	$2,0($8)
 4d8:	1b110004 	0x1b110004
 4dc:	01000003 	0x1000003
 4e0:	00022e1c 	0x22e1c
 4e4:	00092800 	sll	$5,$9,0x0
 4e8:	00009080 	sll	$18,$0,0x2
 4ec:	619c0100 	0x619c0100
 4f0:	07000003 	bltz	$24,500 <__start-0x7ffffb00>
 4f4:	1c010078 	0x1c010078
 4f8:	0000006a 	0x6a
 4fc:	10009102 	beqz	$0,fffe4908 <_bss_end+0x7ffe36c8>
 500:	8000093c 	lb	$0,2364($0)
 504:	00000060 	0x60
 508:	0100690c 	syscall	0x401a4
 50c:	0000331e 	0x331e
 510:	70910200 	0x70910200
 514:	6f120000 	0x6f120000
 518:	01007475 	0x1007475
 51c:	00030816 	0x30816
 520:	00089c00 	sll	$19,$8,0x10
 524:	00008c80 	sll	$17,$0,0x12
 528:	939c0100 	lbu	$28,256($28)
 52c:	07000003 	bltz	$24,53c <__start-0x7ffffac4>
 530:	16010078 	bne	$16,$1,714 <__start-0x7ffff8ec>
 534:	00000075 	0x75
 538:	07009102 	bltz	$24,fffe4944 <_bss_end+0x7ffe3704>
 53c:	1601006e 	bne	$16,$1,6f8 <__start-0x7ffff908>
 540:	00000033 	tltu	$0,$0
 544:	00049102 	srl	$18,$4,0x4
 548:	0002fa0d 	break	0x2,0x3e8
 54c:	970e0100 	lhu	$14,256($24)
 550:	41000002 	bc0f	55c <__start-0x7ffffaa4>
 554:	a4000000 	sh	$0,0($0)
 558:	f8800007 	sdc2	$0,7($4)
 55c:	01000000 	0x1000000
 560:	0003bd9c 	0x3bd9c
 564:	00620700 	0x620700
 568:	00410e01 	0x410e01
 56c:	91020000 	lbu	$2,0($8)
 570:	7c080000 	0x7c080000
 574:	01000002 	0x1000002
 578:	00028608 	0x28608
 57c:	00073c00 	sll	$7,$7,0x10
 580:	00006880 	sll	$13,$0,0x2
 584:	ff9c0100 	sdc3	$28,256($28)
 588:	0f000003 	jal	c00000c <__start-0x73fffff4>
 58c:	00000253 	0x253
 590:	02e50801 	movt	$1,$23,$fcc1
 594:	91020000 	lbu	$2,0($8)
 598:	02110f00 	0x2110f00
 59c:	08010000 	j	40000 <__start-0x7ffc0000>
 5a0:	00000083 	sra	$0,$0,0x2
 5a4:	07049102 	0x7049102
 5a8:	08010078 	j	401e0 <__start-0x7ffbfe20>
 5ac:	00000033 	tltu	$0,$0
 5b0:	00089102 	srl	$18,$8,0x4
 5b4:	0002260d 	break	0x2,0x98
 5b8:	b6030100 	0xb6030100
 5bc:	33000002 	andi	$0,$24,0x2
 5c0:	e8000000 	swc2	$0,0($0)
 5c4:	54800006 	bnezl	$4,5e0 <__start-0x7ffffa20>
 5c8:	01000000 	0x1000000
 5cc:	0004399c 	0x4399c
 5d0:	02530f00 	0x2530f00
 5d4:	03010000 	0x3010000
 5d8:	00000439 	0x439
 5dc:	0f009102 	jal	c024408 <__start-0x73fdbbf8>
 5e0:	00000211 	0x211
 5e4:	00830301 	0x830301
 5e8:	91020000 	lbu	$2,0($8)
 5ec:	040b0004 	tltiu	$0,4
 5f0:	0000004c 	syscall	0x1
 5f4:	00007600 	sll	$14,$0,0x18
 5f8:	37000400 	ori	$0,$24,0x400
 5fc:	04000002 	bltz	$0,608 <__start-0x7ffff9f8>
 600:	00001701 	0x1701
 604:	034d0400 	0x34d0400
 608:	016f0000 	0x16f0000
 60c:	00c80000 	0xc80000
 610:	00000000 	sll	$0,$0,0x0
 614:	03090000 	0x3090000
 618:	01020000 	0x1020000
 61c:	0000e906 	0xe906
 620:	05020200 	bltzl	$8,e24 <__start-0x7ffff1dc>
 624:	00000165 	0x165
 628:	69050403 	0x69050403
 62c:	0200746e 	0x200746e
 630:	01470508 	0x1470508
 634:	01020000 	0x1020000
 638:	0000e708 	0xe708
 63c:	07020200 	bltzl	$24,e40 <__start-0x7ffff1c0>
 640:	000000ff 	0xff
 644:	32070402 	andi	$7,$16,0x402
 648:	02000001 	movf	$0,$16,$fcc0
 64c:	01280708 	0x1280708
 650:	04020000 	bltzl	$0,654 <__start-0x7ffff9ac>
 654:	00012d07 	0x12d07
 658:	03560400 	0x3560400
 65c:	04010000 	bgez	$0,660 <__start-0x7ffff9a0>
 660:	00000033 	tltu	$0,$0
 664:	80000e10 	lb	$0,3600($0)
 668:	0000003c 	0x3c
 66c:	Address 0x000000000000066c is out of bounds.


Disassembly of section .debug_abbrev:

00000000 <.debug_abbrev>:
   0:	25011101 	addiu	$1,$8,4353
   4:	030b130e 	0x30b130e
   8:	550e1b0e 	bnel	$8,$14,6c44 <__start-0x7fff93bc>
   c:	10011117 	beq	$0,$1,446c <__start-0x7fffbb94>
  10:	02000017 	0x2000017
  14:	0b0b0024 	j	c2c0090 <__start-0x73d3ff70>
  18:	0e030b3e 	jal	80c2cf8 <__start-0x77f3d308>
  1c:	24030000 	addiu	$3,$0,0
  20:	3e0b0b00 	0x3e0b0b00
  24:	0008030b 	0x8030b
  28:	00160400 	sll	$0,$22,0x10
  2c:	0b3a0e03 	j	ce8380c <__start-0x7317c7f4>
  30:	13490b3b 	beq	$26,$9,2d20 <__start-0x7fffd2e0>
  34:	35050000 	ori	$5,$8,0x0
  38:	00134900 	sll	$9,$19,0x4
  3c:	00340600 	0x340600
  40:	0b3a0e03 	j	ce8380c <__start-0x7317c7f4>
  44:	13490b3b 	beq	$26,$9,2d34 <__start-0x7fffd2cc>
  48:	1802193f 	0x1802193f
  4c:	0f070000 	jal	c1c0000 <__start-0x73e40000>
  50:	490b0b00 	bc2tl	$cc2,2c54 <__start-0x7fffd3ac>
  54:	08000013 	j	4c <__start-0x7fffffb4>
  58:	193f012e 	0x193f012e
  5c:	0b3a0e03 	j	ce8380c <__start-0x7317c7f4>
  60:	01110b3b 	0x1110b3b
  64:	18400612 	blez	$2,18b0 <__start-0x7fffe750>
  68:	01194296 	0x1194296
  6c:	09000013 	j	400004c <__start-0x7bffffb4>
  70:	08030005 	j	c0014 <__start-0x7ff3ffec>
  74:	0b3b0b3a 	j	cec2ce8 <__start-0x7313d318>
  78:	18021349 	0x18021349
  7c:	2e0a0000 	sltiu	$10,$16,0
  80:	03193f00 	0x3193f00
  84:	3b0b3a0e 	xori	$11,$24,0x3a0e
  88:	1201110b 	beq	$16,$1,44b8 <__start-0x7fffbb48>
  8c:	96184006 	lhu	$24,16390($16)
  90:	00001942 	srl	$3,$0,0x5
  94:	0300340b 	0x300340b
  98:	3b0b3a08 	xori	$11,$24,0x3a08
  9c:	0213490b 	0x213490b
  a0:	0c000018 	jal	60 <__start-0x7fffffa0>
  a4:	0e030034 	jal	80c00d0 <__start-0x77f3ff30>
  a8:	0b3b0b3a 	j	cec2ce8 <__start-0x7313d318>
  ac:	18021349 	0x18021349
  b0:	260d0000 	addiu	$13,$16,0
  b4:	00134900 	sll	$9,$19,0x4
  b8:	012e0e00 	0x12e0e00
  bc:	0e03193f 	jal	80c64fc <__start-0x77f39b04>
  c0:	0b3b0b3a 	j	cec2ce8 <__start-0x7313d318>
  c4:	01111349 	0x1111349
  c8:	18400612 	blez	$2,1914 <__start-0x7fffe6ec>
  cc:	01194296 	0x1194296
  d0:	0f000013 	jal	c00004c <__start-0x73ffffb4>
  d4:	193f002e 	0x193f002e
  d8:	0b3a0e03 	j	ce8380c <__start-0x7317c7f4>
  dc:	13490b3b 	beq	$26,$9,2dcc <__start-0x7fffd234>
  e0:	06120111 	bltzall	$16,528 <__start-0x7ffffad8>
  e4:	42971840 	c0	0x971840
  e8:	10000019 	beqz	$0,150 <__start-0x7ffffeb0>
  ec:	193f012e 	0x193f012e
  f0:	0b3a0e03 	j	ce8380c <__start-0x7317c7f4>
  f4:	01110b3b 	0x1110b3b
  f8:	18400612 	blez	$2,1944 <__start-0x7fffe6bc>
  fc:	00194297 	0x194297
 100:	11010000 	beq	$8,$1,104 <__start-0x7ffffefc>
 104:	130e2501 	beq	$24,$14,950c <__start-0x7fff6af4>
 108:	1b0e030b 	0x1b0e030b
 10c:	1117550e 	beq	$8,$23,15548 <__start-0x7ffeaab8>
 110:	00171001 	0x171001
 114:	00240200 	0x240200
 118:	0b3e0b0b 	j	cf82c2c <__start-0x7307d3d4>
 11c:	00000e03 	sra	$1,$0,0x18
 120:	0b002403 	j	c00900c <__start-0x73ff6ff4>
 124:	030b3e0b 	0x30b3e0b
 128:	04000008 	bltz	$0,14c <__start-0x7ffffeb4>
 12c:	0e030016 	jal	80c0058 <__start-0x77f3ffa8>
 130:	0b3b0b3a 	j	cec2ce8 <__start-0x7313d318>
 134:	00001349 	0x1349
 138:	49002605 	bc2f	9950 <__start-0x7fff66b0>
 13c:	06000013 	bltz	$16,18c <__start-0x7ffffe74>
 140:	193f012e 	0x193f012e
 144:	0b3a0803 	j	ce8200c <__start-0x7317dff4>
 148:	0e6e0b3b 	jal	9b82cec <__start-0x7647d314>
 14c:	01111349 	0x1111349
 150:	18400612 	blez	$2,199c <__start-0x7fffe664>
 154:	01194297 	0x1194297
 158:	07000013 	bltz	$24,1a8 <__start-0x7ffffe58>
 15c:	08030005 	j	c0014 <__start-0x7ff3ffec>
 160:	0b3b0b3a 	j	cec2ce8 <__start-0x7313d318>
 164:	18021349 	0x18021349
 168:	2e080000 	sltiu	$8,$16,0
 16c:	03193f01 	0x3193f01
 170:	3b0b3a0e 	xori	$11,$24,0x3a0e
 174:	110e6e0b 	beq	$8,$14,1b9a4 <__start-0x7ffe465c>
 178:	40061201 	0x40061201
 17c:	19429718 	0x19429718
 180:	00001301 	0x1301
 184:	03003409 	jalr.hb	$6,$24
 188:	3b0b3a0e 	xori	$11,$24,0x3a0e
 18c:	0213490b 	0x213490b
 190:	0a000018 	j	8000060 <__start-0x77ffffa0>
 194:	0b0b000f 	j	c2c003c <__start-0x73d3ffc4>
 198:	0f0b0000 	jal	c2c0000 <__start-0x73d40000>
 19c:	490b0b00 	bc2tl	$cc2,2da0 <__start-0x7fffd260>
 1a0:	0c000013 	jal	4c <__start-0x7fffffb4>
 1a4:	08030034 	j	c00d0 <__start-0x7ff3ff30>
 1a8:	0b3b0b3a 	j	cec2ce8 <__start-0x7313d318>
 1ac:	18021349 	0x18021349
 1b0:	2e0d0000 	sltiu	$13,$16,0
 1b4:	03193f01 	0x3193f01
 1b8:	3b0b3a0e 	xori	$11,$24,0x3a0e
 1bc:	490e6e0b 	bc2fl	$cc3,1b9ec <__start-0x7ffe4614>
 1c0:	12011113 	beq	$16,$1,4610 <__start-0x7fffb9f0>
 1c4:	97184006 	lhu	$24,16390($24)
 1c8:	13011942 	beq	$24,$1,66d4 <__start-0x7fff992c>
 1cc:	2e0e0000 	sltiu	$14,$16,0
 1d0:	03193f01 	0x3193f01
 1d4:	3b0b3a0e 	xori	$11,$24,0x3a0e
 1d8:	490e6e0b 	bc2fl	$cc3,1ba08 <__start-0x7ffe45f8>
 1dc:	12011113 	beq	$16,$1,462c <__start-0x7fffb9d4>
 1e0:	96184006 	lhu	$24,16390($16)
 1e4:	13011942 	beq	$24,$1,66f0 <__start-0x7fff9910>
 1e8:	050f0000 	0x50f0000
 1ec:	3a0e0300 	xori	$14,$16,0x300
 1f0:	490b3b0b 	bc2tl	$cc2,ee20 <__start-0x7fff11e0>
 1f4:	00180213 	0x180213
 1f8:	010b1000 	0x10b1000
 1fc:	06120111 	bltzall	$16,644 <__start-0x7ffff9bc>
 200:	2e110000 	sltiu	$17,$16,0
 204:	03193f01 	0x3193f01
 208:	3b0b3a0e 	xori	$11,$24,0x3a0e
 20c:	110e6e0b 	beq	$8,$14,1ba3c <__start-0x7ffe45c4>
 210:	40061201 	0x40061201
 214:	19429618 	0x19429618
 218:	00001301 	0x1301
 21c:	3f012e12 	0x3f012e12
 220:	3a080319 	xori	$8,$16,0x319
 224:	6e0b3b0b 	0x6e0b3b0b
 228:	1201110e 	beq	$16,$1,4664 <__start-0x7fffb99c>
 22c:	96184006 	lhu	$24,16390($16)
 230:	13011942 	beq	$24,$1,673c <__start-0x7fff98c4>
 234:	01000000 	0x1000000
 238:	0e250111 	jal	8940444 <__start-0x776bfbbc>
 23c:	0e030b13 	jal	80c2c4c <__start-0x77f3d3b4>
 240:	17550e1b 	bne	$26,$21,3ab0 <__start-0x7fffc550>
 244:	17100111 	bne	$24,$16,68c <__start-0x7ffff974>
 248:	24020000 	addiu	$2,$0,0
 24c:	3e0b0b00 	0x3e0b0b00
 250:	000e030b 	0xe030b
 254:	00240300 	0x240300
 258:	0b3e0b0b 	j	cf82c2c <__start-0x7307d3d4>
 25c:	00000803 	sra	$1,$0,0x0
 260:	3f002e04 	0x3f002e04
 264:	3a0e0319 	xori	$14,$16,0x319
 268:	490b3b0b 	bc2tl	$cc2,ee98 <__start-0x7fff1168>
 26c:	12011113 	beq	$16,$1,46bc <__start-0x7fffb944>
 270:	96184006 	lhu	$24,16390($16)
 274:	00001942 	srl	$3,$0,0x5
	...

Disassembly of section .debug_aranges:

00000000 <.debug_aranges>:
   0:	0000004c 	syscall	0x1
   4:	00000002 	srl	$0,$0,0x0
   8:	00040000 	sll	$0,$4,0x0
   c:	00000000 	sll	$0,$0,0x0
  10:	80000398 	lb	$0,920($0)
  14:	00000064 	0x64
  18:	800003fc 	lb	$0,1020($0)
  1c:	00000058 	0x58
  20:	80000454 	lb	$0,1108($0)
  24:	000000b4 	teq	$0,$0,0x2
  28:	80000508 	lb	$0,1288($0)
  2c:	00000064 	0x64
  30:	8000056c 	lb	$0,1388($0)
  34:	000000f4 	teq	$0,$0,0x3
  38:	80000660 	lb	$0,1632($0)
  3c:	0000003c 	0x3c
  40:	8000069c 	lb	$0,1692($0)
  44:	0000004c 	syscall	0x1
	...
  50:	00000094 	0x94
  54:	01b50002 	0x1b50002
  58:	00040000 	sll	$0,$4,0x0
  5c:	00000000 	sll	$0,$0,0x0
  60:	800006e8 	lb	$0,1768($0)
  64:	00000054 	0x54
  68:	8000073c 	lb	$0,1852($0)
  6c:	00000068 	0x68
  70:	800007a4 	lb	$0,1956($0)
  74:	000000f8 	0xf8
  78:	8000089c 	lb	$0,2204($0)
  7c:	0000008c 	syscall	0x2
  80:	80000928 	lb	$0,2344($0)
  84:	00000090 	0x90
  88:	800009b8 	lb	$0,2488($0)
  8c:	0000006c 	0x6c
  90:	80000a24 	lb	$0,2596($0)
  94:	000000e4 	0xe4
  98:	80000b08 	lb	$0,2824($0)
  9c:	0000005c 	0x5c
  a0:	80000b64 	lb	$0,2916($0)
  a4:	0000005c 	0x5c
  a8:	80000bc0 	lb	$0,3008($0)
  ac:	0000005c 	0x5c
  b0:	80000c1c 	lb	$0,3100($0)
  b4:	0000005c 	0x5c
  b8:	80000c78 	lb	$0,3192($0)
  bc:	0000002c 	0x2c
  c0:	80000ca4 	lb	$0,3236($0)
  c4:	00000028 	0x28
  c8:	80000ccc 	lb	$0,3276($0)
  cc:	00000074 	teq	$0,$0,0x1
  d0:	80000d40 	lb	$0,3392($0)
  d4:	00000084 	0x84
  d8:	80000dc4 	lb	$0,3524($0)
  dc:	0000004c 	syscall	0x1
	...
  e8:	0000001c 	0x1c
  ec:	05f50002 	0x5f50002
  f0:	00040000 	sll	$0,$4,0x0
  f4:	00000000 	sll	$0,$0,0x0
  f8:	80000e10 	lb	$0,3600($0)
  fc:	0000003c 	0x3c
	...

Disassembly of section .debug_ranges:

00000000 <.debug_ranges>:
   0:	80000398 	lb	$0,920($0)
   4:	800003fc 	lb	$0,1020($0)
   8:	800003fc 	lb	$0,1020($0)
   c:	80000454 	lb	$0,1108($0)
  10:	80000454 	lb	$0,1108($0)
  14:	80000508 	lb	$0,1288($0)
  18:	80000508 	lb	$0,1288($0)
  1c:	8000056c 	lb	$0,1388($0)
  20:	8000056c 	lb	$0,1388($0)
  24:	80000660 	lb	$0,1632($0)
  28:	80000660 	lb	$0,1632($0)
  2c:	8000069c 	lb	$0,1692($0)
  30:	8000069c 	lb	$0,1692($0)
  34:	800006e8 	lb	$0,1768($0)
	...
  40:	800006e8 	lb	$0,1768($0)
  44:	8000073c 	lb	$0,1852($0)
  48:	8000073c 	lb	$0,1852($0)
  4c:	800007a4 	lb	$0,1956($0)
  50:	800007a4 	lb	$0,1956($0)
  54:	8000089c 	lb	$0,2204($0)
  58:	8000089c 	lb	$0,2204($0)
  5c:	80000928 	lb	$0,2344($0)
  60:	80000928 	lb	$0,2344($0)
  64:	800009b8 	lb	$0,2488($0)
  68:	800009b8 	lb	$0,2488($0)
  6c:	80000a24 	lb	$0,2596($0)
  70:	80000a24 	lb	$0,2596($0)
  74:	80000b08 	lb	$0,2824($0)
  78:	80000b08 	lb	$0,2824($0)
  7c:	80000b64 	lb	$0,2916($0)
  80:	80000b64 	lb	$0,2916($0)
  84:	80000bc0 	lb	$0,3008($0)
  88:	80000bc0 	lb	$0,3008($0)
  8c:	80000c1c 	lb	$0,3100($0)
  90:	80000c1c 	lb	$0,3100($0)
  94:	80000c78 	lb	$0,3192($0)
  98:	80000c78 	lb	$0,3192($0)
  9c:	80000ca4 	lb	$0,3236($0)
  a0:	80000ca4 	lb	$0,3236($0)
  a4:	80000ccc 	lb	$0,3276($0)
  a8:	80000ccc 	lb	$0,3276($0)
  ac:	80000d40 	lb	$0,3392($0)
  b0:	80000d40 	lb	$0,3392($0)
  b4:	80000dc4 	lb	$0,3524($0)
  b8:	80000dc4 	lb	$0,3524($0)
  bc:	80000e10 	lb	$0,3600($0)
	...
  c8:	80000e10 	lb	$0,3600($0)
  cc:	80000e4c 	lb	$0,3660($0)
	...

Disassembly of section .debug_line:

00000000 <.debug_line>:
   0:	00000115 	0x115
   4:	00610002 	0x610002
   8:	01010000 	0x1010000
   c:	000d0efb 	0xd0efb
  10:	01010101 	0x1010101
  14:	01000000 	0x1000000
  18:	2f010000 	sltiu	$1,$24,0
  1c:	2f727375 	sltiu	$18,$27,29557
  20:	2f62696c 	sltiu	$2,$27,26988
  24:	2d636367 	sltiu	$3,$11,25447
  28:	736f7263 	0x736f7263
  2c:	696d2f73 	0x696d2f73
  30:	6c2d7370 	0x6c2d7370
  34:	78756e69 	0x78756e69
  38:	756e672d 	jalx	5b99cb4 <__start-0x7a46634c>
  3c:	692f372f 	0x692f372f
  40:	756c636e 	jalx	5b18db8 <__start-0x7a4e7248>
  44:	00006564 	0x6564
  48:	746f6f62 	jalx	1bdbd88 <__start-0x7e424278>
  4c:	64616f6c 	0x64616f6c
  50:	632e7265 	0x632e7265
  54:	00007070 	tge	$0,$0,0x1c1
  58:	74730000 	jalx	1cc0000 <__start-0x7e340000>
  5c:	746e6964 	jalx	1b9a590 <__start-0x7e465a70>
  60:	6363672d 	0x6363672d
  64:	0100682e 	0x100682e
  68:	00000000 	sll	$0,$0,0x0
  6c:	03980205 	0x3980205
  70:	08198000 	j	660000 <__start-0x7f9a0000>
  74:	1428023d 	bne	$1,$8,96c <__start-0x7ffff694>
  78:	001802f3 	tltu	$0,$24,0xb
  7c:	05000101 	bltz	$8,484 <__start-0x7ffffb7c>
  80:	0003fc02 	srl	$31,$3,0x10
  84:	010d0380 	0x10d0380
  88:	142802bb 	bne	$1,$8,b78 <__start-0x7ffff488>
  8c:	001402f3 	tltu	$0,$20,0xb
  90:	05000101 	bltz	$8,498 <__start-0x7ffffb68>
  94:	00045402 	srl	$10,$4,0x10
  98:	01130380 	0x1130380
  9c:	75084bf3 	jalx	4212fcc <__start-0x7bded034>
  a0:	bb7508bb 	swr	$21,2235($27)
  a4:	08bb7508 	j	2edd420 <__start-0x7d122be0>
  a8:	18024b75 	0x18024b75
  ac:	00010100 	sll	$0,$1,0x4
  b0:	05080205 	tgei	$8,517
  b4:	1f038000 	0x1f038000
  b8:	f33d0801 	0xf33d0801
  bc:	0285ab08 	0x285ab08
  c0:	0101001c 	0x101001c
  c4:	6c020500 	0x6c020500
  c8:	03800005 	0x3800005
  cc:	3e080125 	0x3e080125
  d0:	01040200 	0x1040200
  d4:	bb068206 	swr	$6,-32250($24)
  d8:	02f37508 	0x2f37508
  dc:	02f3132c 	0x2f3132c
  e0:	0200142c 	0x200142c
  e4:	79030204 	0x79030204
  e8:	080a03ba 	j	280ee8 <__start-0x7fd7f118>
  ec:	001c023c 	0x1c023c
  f0:	05000101 	bltz	$8,4f8 <__start-0x7ffffb08>
  f4:	00066002 	srl	$12,$6,0x0
  f8:	01330380 	0x1330380
  fc:	f3f20b03 	0xf3f20b03
 100:	01001c02 	0x1001c02
 104:	02050001 	movt	$0,$16,$fcc1
 108:	8000069c 	lb	$0,1692($0)
 10c:	0100c103 	0x100c103
 110:	bbf33d08 	swr	$19,15624($31)
 114:	01001c02 	0x1001c02
 118:	0001ec01 	0x1ec01
 11c:	6b000200 	0x6b000200
 120:	01000000 	0x1000000
 124:	0d0efb01 	jal	43bec04 <__start-0x7bc413fc>
 128:	01010100 	0x1010100
 12c:	00000001 	movf	$0,$0,$fcc0
 130:	01000001 	movf	$0,$8,$fcc0
 134:	7273752f 	0x7273752f
 138:	62696c2f 	0x62696c2f
 13c:	6363672f 	0x6363672f
 140:	6f72632d 	0x6f72632d
 144:	6d2f7373 	0x6d2f7373
 148:	2d737069 	sltiu	$19,$11,28777
 14c:	756e696c 	jalx	5b9a5b0 <__start-0x7a465a50>
 150:	6e672d78 	0x6e672d78
 154:	2f372f75 	sltiu	$23,$25,12149
 158:	6c636e69 	0x6c636e69
 15c:	00656475 	0x656475
 160:	69747500 	0x69747500
 164:	7974696c 	0x7974696c
 168:	7070632e 	0x7070632e
 16c:	00000000 	sll	$0,$0,0x0
 170:	69647473 	0x69647473
 174:	672d746e 	0x672d746e
 178:	682e6363 	0x682e6363
 17c:	00000100 	sll	$0,$0,0x4
 180:	6c697475 	0x6c697475
 184:	2e797469 	sltiu	$25,$19,29801
 188:	00000068 	0x68
 18c:	05000000 	bltz	$8,190 <__start-0x7ffffe70>
 190:	0006e802 	srl	$29,$6,0x0
 194:	3d081580 	0x3d081580
 198:	02132c02 	0x2132c02
 19c:	01010014 	0x1010014
 1a0:	3c020500 	lui	$2,0x500
 1a4:	1a800007 	blez	$20,1c4 <__start-0x7ffffe3c>
 1a8:	ad087508 	sw	$8,29960($8)
 1ac:	1802ad08 	0x1802ad08
 1b0:	00010100 	sll	$0,$1,0x4
 1b4:	07a40205 	0x7a40205
 1b8:	0e038000 	jal	80e0000 <__start-0x77f20000>
 1bc:	023d0801 	movt	$1,$17,$fcc7
 1c0:	4c021334 	0x4c021334
 1c4:	134c0213 	beq	$26,$12,a14 <__start-0x7ffff5ec>
 1c8:	0014024b 	0x14024b
 1cc:	05000101 	bltz	$8,5d4 <__start-0x7ffffa2c>
 1d0:	00089c02 	srl	$19,$8,0x10
 1d4:	01160380 	0x1160380
 1d8:	ad087508 	sw	$8,29960($8)
 1dc:	84113402 	lh	$17,13314($0)
 1e0:	01001c02 	0x1001c02
 1e4:	02050001 	movt	$0,$16,$fcc1
 1e8:	80000928 	lb	$0,2344($0)
 1ec:	08011c03 	j	4700c <__start-0x7ffb8ff4>
 1f0:	0402003d 	bltzl	$0,2e8 <__start-0x7ffffd18>
 1f4:	06820601 	bltzl	$20,19fc <__start-0x7fffe604>
 1f8:	3402ad08 	ori	$2,$0,0xad08
 1fc:	1c028411 	0x1c028411
 200:	00010100 	sll	$0,$1,0x4
 204:	09b80205 	j	6e00814 <__start-0x791ff7ec>
 208:	22038000 	addi	$3,$16,-32768
 20c:	02750801 	movt	$1,$19,$fcc5
 210:	1802133c 	0x1802133c
 214:	00010100 	sll	$0,$1,0x4
 218:	0a240205 	j	8900814 <__start-0x776ff7ec>
 21c:	27038000 	addiu	$3,$24,-32768
 220:	083d0801 	j	f42004 <__start-0x7f0bdffc>
 224:	02004b3e 	0x2004b3e
 228:	4a060104 	c2	0x60104
 22c:	f33d0806 	0xf33d0806
 230:	02040200 	0x2040200
 234:	3f08e208 	0x3f08e208
 238:	73083d08 	0x73083d08
 23c:	1802f385 	0x1802f385
 240:	00010100 	sll	$0,$1,0x4
 244:	0b080205 	j	c200814 <__start-0x73dff7ec>
 248:	35038000 	ori	$3,$8,0x8000
 24c:	3802f301 	xori	$2,$0,0xf301
 250:	00140213 	0x140213
 254:	05000101 	bltz	$8,65c <__start-0x7ffff9a4>
 258:	000b6402 	srl	$12,$11,0x10
 25c:	013a0380 	0x13a0380
 260:	133802f3 	beq	$25,$24,e30 <__start-0x7ffff1d0>
 264:	01001402 	0x1001402
 268:	02050001 	movt	$0,$16,$fcc1
 26c:	80000bc0 	lb	$0,3008($0)
 270:	08013f03 	j	4fc0c <__start-0x7ffb03f4>
 274:	1334023d 	beq	$25,$20,b6c <__start-0x7ffff494>
 278:	01001402 	0x1001402
 27c:	02050001 	movt	$0,$16,$fcc1
 280:	80000c1c 	lb	$0,3100($0)
 284:	0100c403 	0x100c403
 288:	34023d08 	ori	$2,$0,0x3d08
 28c:	00140213 	0x140213
 290:	05000101 	bltz	$8,698 <__start-0x7ffff968>
 294:	000c7802 	srl	$15,$12,0x0
 298:	00c80380 	0xc80380
 29c:	023c0801 	movf	$1,$17,$fcc7
 2a0:	01010018 	mult	$8,$1
 2a4:	a4020500 	sh	$2,1280($0)
 2a8:	0380000c 	syscall	0xe0000
 2ac:	f20100ca 	0xf20100ca
 2b0:	01001802 	0x1001802
 2b4:	02050001 	movt	$0,$16,$fcc1
 2b8:	80000ccc 	lb	$0,3276($0)
 2bc:	0100cd03 	0x100cd03
 2c0:	0883ad08 	j	20eb420 <__start-0x7df14be0>
 2c4:	843b08ad 	lh	$27,2221($1)
 2c8:	01001802 	0x1001802
 2cc:	02050001 	movt	$0,$16,$fcc1
 2d0:	80000d40 	lb	$0,3392($0)
 2d4:	0100d403 	0x100d403
 2d8:	08f37508 	j	3cdd420 <__start-0x7c322be0>
 2dc:	84e308ad 	lh	$3,2221($7)
 2e0:	01001802 	0x1001802
 2e4:	02050001 	movt	$0,$16,$fcc1
 2e8:	80000dc4 	lb	$0,3524($0)
 2ec:	0100db03 	0x100db03
 2f0:	02003d08 	0x2003d08
 2f4:	08060104 	j	180410 <__start-0x7fe7fbf0>
 2f8:	0402003c 	bltzl	$0,3ec <__start-0x7ffffc14>
 2fc:	0200ba02 	0x200ba02
 300:	4b060504 	c2	0x1060504
 304:	01001402 	0x1001402
 308:	00003501 	0x3501
 30c:	1f000200 	bgtz	$24,b10 <__start-0x7ffff4f0>
 310:	01000000 	0x1000000
 314:	0d0efb01 	jal	43bec04 <__start-0x7bc413fc>
 318:	01010100 	0x1010100
 31c:	00000001 	movf	$0,$0,$fcc0
 320:	01000001 	movf	$0,$8,$fcc0
 324:	69616d00 	0x69616d00
 328:	70632e6e 	0x70632e6e
 32c:	00000070 	tge	$0,$0,0x1
 330:	05000000 	bltz	$8,334 <__start-0x7ffffccc>
 334:	000e1002 	srl	$2,$14,0x0
 338:	f3f31580 	0xf3f31580
 33c:	0018024b 	0x18024b
 340:	Address 0x0000000000000340 is out of bounds.


Disassembly of section .debug_str:

00000000 <.debug_str>:
   0:	54524155 	bnel	$2,$18,10558 <__start-0x7ffefaa8>
   4:	0058545f 	0x58545f
   8:	746c6168 	jalx	1b185a0 <__start-0x7e4e7a60>
   c:	52415500 	beql	$18,$1,15410 <__start-0x7ffeabf0>
  10:	54535f54 	bnel	$2,$19,17d64 <__start-0x7ffe829c>
  14:	47005441 	c1	0x1005441
  18:	4320554e 	c0	0x120554e
  1c:	31312b2b 	andi	$17,$9,0x2b2b
  20:	342e3720 	ori	$14,$1,0x3720
  24:	2d20302e 	sltiu	$0,$9,12334
  28:	206c656d 	addi	$12,$3,25965
  2c:	69736d2d 	0x69736d2d
  30:	656c676e 	0x656c676e
  34:	6f6c662d 	0x6f6c662d
  38:	2d207461 	sltiu	$0,$9,29793
  3c:	6f67786d 	0x6f67786d
  40:	6d2d2074 	0x6d2d2074
  44:	612d6f6e 	0x612d6f6e
  48:	61636962 	0x61636962
  4c:	20736c6c 	addi	$19,$3,27756
  50:	61686d2d 	0x61686d2d
  54:	662d6472 	0x662d6472
  58:	74616f6c 	jalx	185bdb0 <__start-0x7e7a4250>
  5c:	696d2d20 	0x696d2d20
  60:	32337370 	andi	$19,$17,0x7370
  64:	6c6d2d20 	0x6c6d2d20
  68:	2063736c 	addi	$3,$3,29548
  6c:	6f6e6d2d 	0x6f6e6d2d
  70:	63786c2d 	0x63786c2d
  74:	78732d31 	0x78732d31
  78:	2d203163 	sltiu	$0,$9,12643
  7c:	2d6f6e6d 	sltiu	$15,$11,28269
  80:	72616873 	0x72616873
  84:	2d206465 	sltiu	$0,$9,25701
  88:	6962616d 	0x6962616d
  8c:	2032333d 	addi	$18,$1,13117
  90:	2d20672d 	sltiu	$0,$9,26413
  94:	3d647473 	0x3d647473
  98:	312b2b63 	andi	$11,$9,0x2b63
  9c:	662d2031 	0x662d2031
  a0:	636e7566 	0x636e7566
  a4:	6e6f6974 	0x6e6f6974
  a8:	6365732d 	0x6365732d
  ac:	6e6f6974 	0x6e6f6974
  b0:	662d2073 	0x662d2073
  b4:	61746164 	0x61746164
  b8:	6365732d 	0x6365732d
  bc:	6e6f6974 	0x6e6f6974
  c0:	662d2073 	0x662d2073
  c4:	65657266 	0x65657266
  c8:	6e617473 	0x6e617473
  cc:	676e6964 	0x676e6964
  d0:	6e662d20 	0x6e662d20
  d4:	75622d6f 	jalx	588b5bc <__start-0x7a774a44>
  d8:	69746c69 	0x69746c69
  dc:	662d206e 	0x662d206e
  e0:	502d6f6e 	beql	$1,$13,1be9c <__start-0x7ffe4164>
  e4:	75004549 	jalx	4011524 <__start-0x7bfeeadc>
  e8:	6769736e 	0x6769736e
  ec:	2064656e 	addi	$4,$3,25966
  f0:	72616863 	0x72616863
  f4:	74656700 	jalx	1959c00 <__start-0x7e6a6400>
  f8:	65740063 	0x65740063
  fc:	7300706d 	0x7300706d
 100:	74726f68 	jalx	1c9bda0 <__start-0x7e364260>
 104:	736e7520 	0x736e7520
 108:	656e6769 	0x656e6769
 10c:	6e692064 	0x6e692064
 110:	6f620074 	0x6f620074
 114:	6f6c746f 	0x6f6c746f
 118:	72656461 	0x72656461
 11c:	7070632e 	0x7070632e
 120:	74656700 	jalx	1959c00 <__start-0x7e6a6400>
 124:	006e656c 	0x6e656c
 128:	676e6f6c 	0x676e6f6c
 12c:	6e6f6c20 	0x6e6f6c20
 130:	6e752067 	0x6e752067
 134:	6e676973 	0x6e676973
 138:	69206465 	0x69206465
 13c:	7500746e 	jalx	401d1b8 <__start-0x7bfe2e48>
 140:	38746e69 	xori	$20,$3,0x6e69
 144:	6c00745f 	0x6c00745f
 148:	20676e6f 	addi	$7,$3,28271
 14c:	676e6f6c 	0x676e6f6c
 150:	746e6920 	jalx	1b9a480 <__start-0x7e465b80>
 154:	6f6f6200 	0x6f6f6200
 158:	616f6c74 	0x616f6c74
 15c:	00726564 	0x726564
 160:	63747570 	0x63747570
 164:	6f687300 	0x6f687300
 168:	69207472 	0x69207472
 16c:	2f00746e 	sltiu	$0,$24,29806
 170:	2f746e6d 	sltiu	$20,$27,28269
 174:	6f632f64 	0x6f632f64
 178:	2f736564 	sltiu	$19,$27,25956
 17c:	322d7768 	andi	$13,$17,0x7768
 180:	61393130 	0x61393130
 184:	6d757475 	0x6d757475
 188:	726f2f6e 	0x726f2f6e
 18c:	656e2d67 	0x656e2d67
 190:	6f632f74 	0x6f632f74
 194:	67393164 	0x67393164
 198:	2f327072 	sltiu	$18,$25,28786
 19c:	6e696874 	0x6e696874
 1a0:	5f646170 	0x5f646170
 1a4:	2e706f74 	sltiu	$16,$19,28532
 1a8:	73637273 	0x73637273
 1ac:	6d69732f 	0x6d69732f
 1b0:	6e2f315f 	0x6e2f315f
 1b4:	6d2f7765 	0x6d2f7765
 1b8:	69686361 	0x69686361
 1bc:	632d656e 	0x632d656e
 1c0:	2d65646f 	sltiu	$5,$11,25711
 1c4:	656e6567 	0x656e6567
 1c8:	6f746172 	0x6f746172
 1cc:	69750072 	0x69750072
 1d0:	3233746e 	andi	$19,$17,0x746e
 1d4:	7000745f 	0x7000745f
 1d8:	00737475 	0x737475
 1dc:	54524155 	bnel	$2,$18,10734 <__start-0x7ffef8cc>
 1e0:	0058525f 	0x58525f
 1e4:	68747570 	0x68747570
 1e8:	6e007865 	0x6e007865
 1ec:	6c686f74 	0x6c686f74
 1f0:	375a5f00 	ori	$26,$26,0x5f00
 1f4:	63747570 	0x63747570
 1f8:	63726168 	0x63726168
 1fc:	365a5f00 	ori	$26,$18,0x5f00
 200:	736d656d 	0x736d656d
 204:	76507465 	jalx	941d194 <__start-0x76be2e6c>
 208:	6e006d63 	0x6e006d63
 20c:	73686f74 	0x73686f74
 210:	646e6900 	0x646e6900
 214:	73007865 	0x73007865
 218:	5f657a69 	0x5f657a69
 21c:	75700074 	jalx	5c001d0 <__start-0x7a3ffe30>
 220:	61686374 	0x61686374
 224:	65670072 	0x65670072
 228:	74614474 	jalx	18511d0 <__start-0x7e7aee30>
 22c:	5a5f0061 	0x5a5f0061
 230:	74756f36 	jalx	1d5bcd8 <__start-0x7e2a4328>
 234:	6a747570 	0x6a747570
 238:	6d656d00 	0x6d656d00
 23c:	00797063 	0x797063
 240:	6e6f7468 	0x6e6f7468
 244:	5a5f0073 	0x5a5f0073
 248:	69727036 	0x69727036
 24c:	5066746e 	beql	$3,$6,1d408 <__start-0x7ffe2bf8>
 250:	7000634b 	0x7000634b
 254:	656b6361 	0x656b6361
 258:	61630074 	0x61630074
 25c:	6d00636c 	0x6d00636c
 260:	65736d65 	0x65736d65
 264:	5a5f0074 	0x5a5f0074
 268:	6d656d36 	0x6d656d36
 26c:	50797063 	beql	$3,$25,1c3fc <__start-0x7ffe3c04>
 270:	6d5f5376 	0x6d5f5376
 274:	69727000 	0x69727000
 278:	0066746e 	0x66746e
 27c:	74697277 	jalx	1a5c9dc <__start-0x7e5a3624>
 280:	74614465 	jalx	1851194 <__start-0x7e7aee6c>
 284:	5a5f0061 	0x5a5f0061
 288:	69727739 	0x69727739
 28c:	61446574 	0x61446574
 290:	68506174 	0x68506174
 294:	5f00696d 	bgtzl	$24,1a84c <__start-0x7ffe57b4>
 298:	6572375a 	0x6572375a
 29c:	73726576 	0x73726576
 2a0:	5f006865 	bgtzl	$24,1a438 <__start-0x7ffe5bc8>
 2a4:	746e355a 	jalx	1b8d568 <__start-0x7e472a98>
 2a8:	7473686f 	jalx	1cda1bc <__start-0x7e325e44>
 2ac:	6e697500 	0x6e697500
 2b0:	5f363174 	0x5f363174
 2b4:	5a5f0074 	0x5a5f0074
 2b8:	74656737 	jalx	1959cdc <__start-0x7e6a6324>
 2bc:	61746144 	0x61746144
 2c0:	6d684b50 	0x6d684b50
 2c4:	64646100 	0x64646100
 2c8:	5a5f0072 	0x5a5f0072
 2cc:	50493031 	beql	$2,$9,c394 <__start-0x7fff3c6c>
 2d0:	63656843 	0x63656843
 2d4:	6d75736b 	0x6d75736b
 2d8:	5f006850 	bgtzl	$24,1a41c <__start-0x7ffe5be4>
 2dc:	696d335a 	0x696d335a
 2e0:	006a6a6e 	0x6a6a6e
 2e4:	6c697475 	0x6c697475
 2e8:	2e797469 	sltiu	$25,$19,29801
 2ec:	00707063 	0x707063
 2f0:	63345a5f 	0x63345a5f
 2f4:	6a636c61 	0x6a636c61
 2f8:	65720069 	0x65720069
 2fc:	73726576 	0x73726576
 300:	74680065 	jalx	1a00194 <__start-0x7e5ffe6c>
 304:	006c6e6f 	0x6c6e6f
 308:	6f335a5f 	0x6f335a5f
 30c:	696a7475 	0x696a7475
 310:	355a5f00 	ori	$26,$10,0x5f00
 314:	6e6f7468 	0x6e6f7468
 318:	6f007473 	0x6f007473
 31c:	75707475 	jalx	5c1d1d4 <__start-0x7a3e2e2c>
 320:	5f630074 	0x5f630074
 324:	00637273 	tltu	$3,$3,0x1c9
 328:	6e355a5f 	0x6e355a5f
 32c:	6c686f74 	0x6c686f74
 330:	5f63006a 	0x5f63006a
 334:	00747364 	0x747364
 338:	68355a5f 	0x68355a5f
 33c:	6c6e6f74 	0x6c6e6f74
 340:	5049006a 	beql	$2,$9,4ec <__start-0x7ffffb14>
 344:	63656843 	0x63656843
 348:	6d75736b 	0x6d75736b
 34c:	69616d00 	0x69616d00
 350:	70632e6e 	0x70632e6e
 354:	616d0070 	0x616d0070
 358:	Address 0x0000000000000358 is out of bounds.

