
bootloader.cpp.o:     file format elf32-tradlittlemips


Disassembly of section .reginfo:

00000000 <.reginfo>:
   0:	e000001c 	sc	$0,28($0)
	...

Disassembly of section .MIPS.abiflags:

00000000 <.MIPS.abiflags>:
   0:	01200000 	0x1200000
   4:	02000101 	0x2000101
	...
  10:	00000001 	movf	$0,$0,$fcc0
  14:	00000000 	sll	$0,$0,0x0

Disassembly of section .pdr:

00000000 <.pdr>:
   0:	00000000 	sll	$0,$0,0x0
   4:	40000000 	mfc0	$0,c0_index
   8:	fffffffc 	sdc3	$31,-4($31)
	...
  14:	00000008 	jr	$0
  18:	0000001e 	0x1e
  1c:	0000001f 	0x1f
  20:	00000000 	sll	$0,$0,0x0
  24:	40000000 	mfc0	$0,c0_index
  28:	fffffffc 	sdc3	$31,-4($31)
	...
  34:	00000008 	jr	$0
  38:	0000001e 	0x1e
  3c:	0000001f 	0x1f
  40:	00000000 	sll	$0,$0,0x0
  44:	c0000000 	ll	$0,0($0)
  48:	fffffffc 	sdc3	$31,-4($31)
	...
  54:	00000020 	add	$0,$0,$0
  58:	0000001e 	0x1e
  5c:	0000001f 	0x1f
  60:	00000000 	sll	$0,$0,0x0
  64:	c0000000 	ll	$0,0($0)
  68:	fffffffc 	sdc3	$31,-4($31)
	...
  74:	00000018 	mult	$0,$0
  78:	0000001e 	0x1e
  7c:	0000001f 	0x1f
  80:	00000000 	sll	$0,$0,0x0
  84:	c0000000 	ll	$0,0($0)
  88:	fffffffc 	sdc3	$31,-4($31)
	...
  94:	00000020 	add	$0,$0,$0
  98:	0000001e 	0x1e
  9c:	0000001f 	0x1f
  a0:	00000000 	sll	$0,$0,0x0
  a4:	c0000000 	ll	$0,0($0)
  a8:	fffffffc 	sdc3	$31,-4($31)
	...
  b4:	00000018 	mult	$0,$0
  b8:	0000001e 	0x1e
  bc:	0000001f 	0x1f
  c0:	00000000 	sll	$0,$0,0x0
  c4:	c0000000 	ll	$0,0($0)
  c8:	fffffffc 	sdc3	$31,-4($31)
	...
  d4:	00000018 	mult	$0,$0
  d8:	0000001e 	0x1e
  dc:	0000001f 	0x1f

Disassembly of section .data.UART_RX:

00000000 <UART_RX>:
   0:	bfd003f8 	cache	0x10,1016($30)

Disassembly of section .data.UART_TX:

00000000 <UART_TX>:
   0:	bfd003f8 	cache	0x10,1016($30)

Disassembly of section .data.UART_STAT:

00000000 <UART_STAT>:
   0:	bfd003fc 	cache	0x10,1020($30)

Disassembly of section .text.putc:

00000000 <putc>:
   0:	27bdfff8 	addiu	$29,$29,-8
   4:	afbe0004 	sw	$30,4($29)
   8:	03a0f025 	or	$30,$29,$0
   c:	00801025 	or	$2,$4,$0
  10:	a3c20008 	sb	$2,8($30)
  14:	3c020000 	lui	$2,0x0
  18:	8c420000 	lw	$2,0($2)
  1c:	8c420000 	lw	$2,0($2)
  20:	30420001 	andi	$2,$2,0x1
  24:	2c420001 	sltiu	$2,$2,1
  28:	304200ff 	andi	$2,$2,0xff
  2c:	10400003 	beqz	$2,3c <putc+0x3c>
  30:	00000000 	sll	$0,$0,0x0
  34:	1000fff7 	beqz	$0,14 <putc+0x14>
  38:	00000000 	sll	$0,$0,0x0
  3c:	3c020000 	lui	$2,0x0
  40:	8c420000 	lw	$2,0($2)
  44:	83c30008 	lb	$3,8($30)
  48:	ac430000 	sw	$3,0($2)
  4c:	00000000 	sll	$0,$0,0x0
  50:	03c0e825 	or	$29,$30,$0
  54:	8fbe0004 	lw	$30,4($29)
  58:	27bd0008 	addiu	$29,$29,8
  5c:	03e00008 	jr	$31
  60:	00000000 	sll	$0,$0,0x0

Disassembly of section .text.getc:

00000000 <getc>:
   0:	27bdfff8 	addiu	$29,$29,-8
   4:	afbe0004 	sw	$30,4($29)
   8:	03a0f025 	or	$30,$29,$0
   c:	3c020000 	lui	$2,0x0
  10:	8c420000 	lw	$2,0($2)
  14:	8c420000 	lw	$2,0($2)
  18:	30420002 	andi	$2,$2,0x2
  1c:	2c420001 	sltiu	$2,$2,1
  20:	304200ff 	andi	$2,$2,0xff
  24:	10400003 	beqz	$2,34 <getc+0x34>
  28:	00000000 	sll	$0,$0,0x0
  2c:	1000fff7 	beqz	$0,c <getc+0xc>
  30:	00000000 	sll	$0,$0,0x0
  34:	3c020000 	lui	$2,0x0
  38:	8c420000 	lw	$2,0($2)
  3c:	8c420000 	lw	$2,0($2)
  40:	304200ff 	andi	$2,$2,0xff
  44:	03c0e825 	or	$29,$30,$0
  48:	8fbe0004 	lw	$30,4($29)
  4c:	27bd0008 	addiu	$29,$29,8
  50:	03e00008 	jr	$31
  54:	00000000 	sll	$0,$0,0x0

Disassembly of section .text.getlen:

00000000 <getlen>:
   0:	27bdffe0 	addiu	$29,$29,-32
   4:	afbf001c 	sw	$31,28($29)
   8:	afbe0018 	sw	$30,24($29)
   c:	03a0f025 	or	$30,$29,$0
  10:	afc00010 	sw	$0,16($30)
  14:	0c000000 	jal	0 <getlen>
  18:	00000000 	sll	$0,$0,0x0
  1c:	00401825 	or	$3,$2,$0
  20:	8fc20010 	lw	$2,16($30)
  24:	00431025 	or	$2,$2,$3
  28:	afc20010 	sw	$2,16($30)
  2c:	8fc20010 	lw	$2,16($30)
  30:	00021200 	sll	$2,$2,0x8
  34:	afc20010 	sw	$2,16($30)
  38:	0c000000 	jal	0 <getlen>
  3c:	00000000 	sll	$0,$0,0x0
  40:	00401825 	or	$3,$2,$0
  44:	8fc20010 	lw	$2,16($30)
  48:	00431025 	or	$2,$2,$3
  4c:	afc20010 	sw	$2,16($30)
  50:	8fc20010 	lw	$2,16($30)
  54:	00021200 	sll	$2,$2,0x8
  58:	afc20010 	sw	$2,16($30)
  5c:	0c000000 	jal	0 <getlen>
  60:	00000000 	sll	$0,$0,0x0
  64:	00401825 	or	$3,$2,$0
  68:	8fc20010 	lw	$2,16($30)
  6c:	00431025 	or	$2,$2,$3
  70:	afc20010 	sw	$2,16($30)
  74:	8fc20010 	lw	$2,16($30)
  78:	00021200 	sll	$2,$2,0x8
  7c:	afc20010 	sw	$2,16($30)
  80:	0c000000 	jal	0 <getlen>
  84:	00000000 	sll	$0,$0,0x0
  88:	00401825 	or	$3,$2,$0
  8c:	8fc20010 	lw	$2,16($30)
  90:	00431025 	or	$2,$2,$3
  94:	afc20010 	sw	$2,16($30)
  98:	8fc20010 	lw	$2,16($30)
  9c:	03c0e825 	or	$29,$30,$0
  a0:	8fbf001c 	lw	$31,28($29)
  a4:	8fbe0018 	lw	$30,24($29)
  a8:	27bd0020 	addiu	$29,$29,32
  ac:	03e00008 	jr	$31
  b0:	00000000 	sll	$0,$0,0x0

Disassembly of section .text.puts:

00000000 <puts>:
   0:	27bdffe8 	addiu	$29,$29,-24
   4:	afbf0014 	sw	$31,20($29)
   8:	afbe0010 	sw	$30,16($29)
   c:	03a0f025 	or	$30,$29,$0
  10:	afc40018 	sw	$4,24($30)
  14:	8fc20018 	lw	$2,24($30)
  18:	80420000 	lb	$2,0($2)
  1c:	1040000a 	beqz	$2,48 <puts+0x48>
  20:	00000000 	sll	$0,$0,0x0
  24:	8fc20018 	lw	$2,24($30)
  28:	24430001 	addiu	$3,$2,1
  2c:	afc30018 	sw	$3,24($30)
  30:	80420000 	lb	$2,0($2)
  34:	00402025 	or	$4,$2,$0
  38:	0c000000 	jal	0 <puts>
  3c:	00000000 	sll	$0,$0,0x0
  40:	1000fff4 	beqz	$0,14 <puts+0x14>
  44:	00000000 	sll	$0,$0,0x0
  48:	00000000 	sll	$0,$0,0x0
  4c:	03c0e825 	or	$29,$30,$0
  50:	8fbf0014 	lw	$31,20($29)
  54:	8fbe0010 	lw	$30,16($29)
  58:	27bd0018 	addiu	$29,$29,24
  5c:	03e00008 	jr	$31
  60:	00000000 	sll	$0,$0,0x0

Disassembly of section .text.puthex:

00000000 <puthex>:
   0:	27bdffe0 	addiu	$29,$29,-32
   4:	afbf001c 	sw	$31,28($29)
   8:	afbe0018 	sw	$30,24($29)
   c:	03a0f025 	or	$30,$29,$0
  10:	afc40020 	sw	$4,32($30)
  14:	24020007 	addiu	$2,$0,7
  18:	afc20010 	sw	$2,16($30)
  1c:	8fc20010 	lw	$2,16($30)
  20:	0440002d 	bltz	$2,d8 <puthex+0xd8>
  24:	00000000 	sll	$0,$0,0x0
  28:	8fc20010 	lw	$2,16($30)
  2c:	00021080 	sll	$2,$2,0x2
  30:	8fc30020 	lw	$3,32($30)
  34:	00431006 	srlv	$2,$3,$2
  38:	3042000f 	andi	$2,$2,0xf
  3c:	afc20014 	sw	$2,20($30)
  40:	8fc20014 	lw	$2,20($30)
  44:	2842000b 	slti	$2,$2,11
  48:	1040000c 	beqz	$2,7c <puthex+0x7c>
  4c:	00000000 	sll	$0,$0,0x0
  50:	8fc20014 	lw	$2,20($30)
  54:	304200ff 	andi	$2,$2,0xff
  58:	24420030 	addiu	$2,$2,48
  5c:	304200ff 	andi	$2,$2,0xff
  60:	00021600 	sll	$2,$2,0x18
  64:	00021603 	sra	$2,$2,0x18
  68:	00402025 	or	$4,$2,$0
  6c:	0c000000 	jal	0 <puthex>
  70:	00000000 	sll	$0,$0,0x0
  74:	10000013 	beqz	$0,c4 <puthex+0xc4>
  78:	00000000 	sll	$0,$0,0x0
  7c:	8fc20014 	lw	$2,20($30)
  80:	28420010 	slti	$2,$2,16
  84:	1040000c 	beqz	$2,b8 <puthex+0xb8>
  88:	00000000 	sll	$0,$0,0x0
  8c:	8fc20014 	lw	$2,20($30)
  90:	304200ff 	andi	$2,$2,0xff
  94:	24420037 	addiu	$2,$2,55
  98:	304200ff 	andi	$2,$2,0xff
  9c:	00021600 	sll	$2,$2,0x18
  a0:	00021603 	sra	$2,$2,0x18
  a4:	00402025 	or	$4,$2,$0
  a8:	0c000000 	jal	0 <puthex>
  ac:	00000000 	sll	$0,$0,0x0
  b0:	10000004 	beqz	$0,c4 <puthex+0xc4>
  b4:	00000000 	sll	$0,$0,0x0
  b8:	2404002e 	addiu	$4,$0,46
  bc:	0c000000 	jal	0 <puthex>
  c0:	00000000 	sll	$0,$0,0x0
  c4:	8fc20010 	lw	$2,16($30)
  c8:	2442ffff 	addiu	$2,$2,-1
  cc:	afc20010 	sw	$2,16($30)
  d0:	1000ffd2 	beqz	$0,1c <puthex+0x1c>
  d4:	00000000 	sll	$0,$0,0x0
  d8:	00000000 	sll	$0,$0,0x0
  dc:	03c0e825 	or	$29,$30,$0
  e0:	8fbf001c 	lw	$31,28($29)
  e4:	8fbe0018 	lw	$30,24($29)
  e8:	27bd0020 	addiu	$29,$29,32
  ec:	03e00008 	jr	$31
  f0:	00000000 	sll	$0,$0,0x0

Disassembly of section .rodata:

00000000 <.rodata>:
   0:	00005442 	srl	$10,$0,0x11
   4:	00204c41 	0x204c41
	...

Disassembly of section .text.bootloader:

00000000 <bootloader>:
   0:	27bdffe8 	addiu	$29,$29,-24
   4:	afbf0014 	sw	$31,20($29)
   8:	afbe0010 	sw	$30,16($29)
   c:	03a0f025 	or	$30,$29,$0
  10:	3c020000 	lui	$2,0x0
  14:	24440000 	addiu	$4,$2,0
  18:	0c000000 	jal	0 <bootloader>
  1c:	00000000 	sll	$0,$0,0x0
  20:	00000000 	sll	$0,$0,0x0
  24:	03c0e825 	or	$29,$30,$0
  28:	8fbf0014 	lw	$31,20($29)
  2c:	8fbe0010 	lw	$30,16($29)
  30:	27bd0018 	addiu	$29,$29,24
  34:	03e00008 	jr	$31
  38:	00000000 	sll	$0,$0,0x0

Disassembly of section .text.halt:

00000000 <halt>:
   0:	27bdffe8 	addiu	$29,$29,-24
   4:	afbf0014 	sw	$31,20($29)
   8:	afbe0010 	sw	$30,16($29)
   c:	03a0f025 	or	$30,$29,$0
  10:	afc40018 	sw	$4,24($30)
  14:	3c020000 	lui	$2,0x0
  18:	24440004 	addiu	$4,$2,4
  1c:	0c000000 	jal	0 <halt>
  20:	00000000 	sll	$0,$0,0x0
  24:	8fc40018 	lw	$4,24($30)
  28:	0c000000 	jal	0 <halt>
  2c:	00000000 	sll	$0,$0,0x0
  30:	00000000 	sll	$0,$0,0x0
  34:	03c0e825 	or	$29,$30,$0
  38:	8fbf0014 	lw	$31,20($29)
  3c:	8fbe0010 	lw	$30,16($29)
  40:	27bd0018 	addiu	$29,$29,24
  44:	03e00008 	jr	$31
  48:	00000000 	sll	$0,$0,0x0

Disassembly of section .debug_info:

00000000 <.debug_info>:
   0:	000001b1 	tgeu	$0,$0,0x6
   4:	00000004 	sllv	$0,$0,$0
   8:	01040000 	0x1040000
   c:	00000017 	0x17
  10:	00011204 	0x11204
  14:	00017c00 	sll	$15,$1,0x10
	...
  24:	06010200 	bgez	$16,828 <UART_RX+0x828>
  28:	000001ee 	0x1ee
  2c:	72050202 	0x72050202
  30:	03000001 	movf	$0,$24,$fcc0
  34:	6e690504 	0x6e690504
  38:	08020074 	j	801d0 <UART_RX+0x801d0>
  3c:	00015405 	0x15405
  40:	014c0400 	0x14c0400
  44:	2e020000 	sltiu	$2,$16,0
  48:	0000004c 	syscall	0x1
  4c:	e7080102 	swc1	$f8,258($24)
  50:	02000000 	0x2000000
  54:	00ff0702 	0xff0702
  58:	db040000 	ldc2	$4,0($24)
  5c:	02000001 	movf	$0,$16,$fcc0
  60:	00006a34 	teq	$0,$0,0x1a8
  64:	005a0500 	0x5a0500
  68:	04020000 	bltzl	$0,6c <.debug_info+0x6c>
  6c:	00012107 	0x12107
  70:	07080200 	tgei	$24,512
  74:	00000135 	0x135
  78:	0001fa06 	0x1fa06
  7c:	89040100 	lwl	$4,256($8)
  80:	05000000 	bltz	$8,84 <.debug_info+0x84>
  84:	00000003 	sra	$0,$0,0x0
  88:	65040700 	0x65040700
  8c:	06000000 	bltz	$16,90 <.debug_info+0x90>
  90:	00000000 	sll	$0,$0,0x0
  94:	00890501 	0x890501
  98:	03050000 	0x3050000
  9c:	00000000 	sll	$0,$0,0x0
  a0:	00000d06 	0xd06
  a4:	89060100 	lwl	$6,256($8)
  a8:	05000000 	bltz	$8,ac <.debug_info+0xac>
  ac:	00000003 	sra	$0,$0,0x0
  b0:	00080800 	sll	$1,$8,0x0
  b4:	42010000 	c0	0x10000
  b8:	00000000 	sll	$0,$0,0x0
  bc:	0000004c 	syscall	0x1
  c0:	00d59c01 	0xd59c01
  c4:	65090000 	0x65090000
  c8:	01006370 	tge	$8,$0,0x18d
  cc:	00005a42 	srl	$11,$0,0x9
  d0:	00910200 	0x910200
  d4:	01620a00 	0x1620a00
  d8:	34010000 	ori	$1,$0,0x0
  dc:	00000000 	sll	$0,$0,0x0
  e0:	0000003c 	0x3c
  e4:	02089c01 	0x2089c01
  e8:	01000002 	0x1000002
  ec:	00000026 	xor	$0,$0,$0
  f0:	0000f400 	sll	$30,$0,0x10
  f4:	249c0100 	addiu	$28,$4,256
  f8:	09000001 	j	4000004 <UART_RX+0x4000004>
  fc:	006d756e 	0x6d756e
 100:	005a2601 	0x5a2601
 104:	91020000 	lbu	$2,0($8)
 108:	00690b00 	0x690b00
 10c:	00332701 	0x332701
 110:	91020000 	lbu	$2,0($8)
 114:	00fa0c70 	tge	$7,$26,0x31
 118:	27010000 	addiu	$1,$24,0
 11c:	00000033 	tltu	$0,$0
 120:	00749102 	0x749102
 124:	0001e908 	0x1e908
 128:	00200100 	0x200100
 12c:	64000000 	0x64000000
 130:	01000000 	0x1000000
 134:	0001469c 	0x1469c
 138:	00730900 	0x730900
 13c:	01462001 	0x1462001
 140:	91020000 	lbu	$2,0($8)
 144:	04070000 	0x4070000
 148:	00000153 	0x153
 14c:	e4060102 	swc1	$f6,258($0)
 150:	0d000001 	jal	4000004 <UART_RX+0x4000004>
 154:	0000014c 	syscall	0x5
 158:	00012e0e 	0x12e0e
 15c:	5a140100 	0x5a140100
 160:	00000000 	sll	$0,$0,0x0
 164:	b4000000 	0xb4000000
 168:	01000000 	0x1000000
 16c:	0001809c 	0x1809c
 170:	656c0b00 	0x656c0b00
 174:	1501006e 	bne	$8,$1,330 <UART_RX+0x330>
 178:	0000005a 	0x5a
 17c:	00709102 	0x709102
 180:	0000f50f 	0xf50f
 184:	410e0100 	0x410e0100
 188:	00000000 	sll	$0,$0,0x0
 18c:	58000000 	blezl	$0,190 <.debug_info+0x190>
 190:	01000000 	0x1000000
 194:	016d109c 	0x16d109c
 198:	08010000 	j	40000 <UART_RX+0x40000>
 19c:	00000000 	sll	$0,$0,0x0
 1a0:	00000064 	0x64
 1a4:	63099c01 	0x63099c01
 1a8:	08010068 	j	401a0 <UART_RX+0x401a0>
 1ac:	0000014c 	syscall	0x5
 1b0:	00009102 	srl	$18,$0,0x4
	...

Disassembly of section .debug_abbrev:

00000000 <.debug_abbrev>:
   0:	25011101 	addiu	$1,$8,4353
   4:	030b130e 	0x30b130e
   8:	550e1b0e 	bnel	$8,$14,6c44 <UART_RX+0x6c44>
   c:	10011117 	beq	$0,$1,446c <UART_RX+0x446c>
  10:	02000017 	0x2000017
  14:	0b0b0024 	j	c2c0090 <UART_RX+0xc2c0090>
  18:	0e030b3e 	jal	80c2cf8 <UART_RX+0x80c2cf8>
  1c:	24030000 	addiu	$3,$0,0
  20:	3e0b0b00 	0x3e0b0b00
  24:	0008030b 	0x8030b
  28:	00160400 	sll	$0,$22,0x10
  2c:	0b3a0e03 	j	ce8380c <UART_RX+0xce8380c>
  30:	13490b3b 	beq	$26,$9,2d20 <UART_RX+0x2d20>
  34:	35050000 	ori	$5,$8,0x0
  38:	00134900 	sll	$9,$19,0x4
  3c:	00340600 	0x340600
  40:	0b3a0e03 	j	ce8380c <UART_RX+0xce8380c>
  44:	13490b3b 	beq	$26,$9,2d34 <UART_RX+0x2d34>
  48:	1802193f 	0x1802193f
  4c:	0f070000 	jal	c1c0000 <UART_RX+0xc1c0000>
  50:	490b0b00 	bc2tl	$cc2,2c54 <UART_RX+0x2c54>
  54:	08000013 	j	4c <.debug_abbrev+0x4c>
  58:	193f012e 	0x193f012e
  5c:	0b3a0e03 	j	ce8380c <UART_RX+0xce8380c>
  60:	01110b3b 	0x1110b3b
  64:	18400612 	blez	$2,18b0 <UART_RX+0x18b0>
  68:	01194296 	0x1194296
  6c:	09000013 	j	400004c <UART_RX+0x400004c>
  70:	08030005 	j	c0014 <UART_RX+0xc0014>
  74:	0b3b0b3a 	j	cec2ce8 <UART_RX+0xcec2ce8>
  78:	18021349 	0x18021349
  7c:	2e0a0000 	sltiu	$10,$16,0
  80:	03193f00 	0x3193f00
  84:	3b0b3a0e 	xori	$11,$24,0x3a0e
  88:	1201110b 	beq	$16,$1,44b8 <UART_RX+0x44b8>
  8c:	96184006 	lhu	$24,16390($16)
  90:	00001942 	srl	$3,$0,0x5
  94:	0300340b 	0x300340b
  98:	3b0b3a08 	xori	$11,$24,0x3a08
  9c:	0213490b 	0x213490b
  a0:	0c000018 	jal	60 <.debug_abbrev+0x60>
  a4:	0e030034 	jal	80c00d0 <UART_RX+0x80c00d0>
  a8:	0b3b0b3a 	j	cec2ce8 <UART_RX+0xcec2ce8>
  ac:	18021349 	0x18021349
  b0:	260d0000 	addiu	$13,$16,0
  b4:	00134900 	sll	$9,$19,0x4
  b8:	012e0e00 	0x12e0e00
  bc:	0e03193f 	jal	80c64fc <UART_RX+0x80c64fc>
  c0:	0b3b0b3a 	j	cec2ce8 <UART_RX+0xcec2ce8>
  c4:	01111349 	0x1111349
  c8:	18400612 	blez	$2,1914 <UART_RX+0x1914>
  cc:	01194296 	0x1194296
  d0:	0f000013 	jal	c00004c <UART_RX+0xc00004c>
  d4:	193f002e 	0x193f002e
  d8:	0b3a0e03 	j	ce8380c <UART_RX+0xce8380c>
  dc:	13490b3b 	beq	$26,$9,2dcc <UART_RX+0x2dcc>
  e0:	06120111 	bltzall	$16,528 <UART_RX+0x528>
  e4:	42971840 	c0	0x971840
  e8:	10000019 	beqz	$0,150 <UART_RX+0x150>
  ec:	193f012e 	0x193f012e
  f0:	0b3a0e03 	j	ce8380c <UART_RX+0xce8380c>
  f4:	01110b3b 	0x1110b3b
  f8:	18400612 	blez	$2,1944 <UART_RX+0x1944>
  fc:	00194297 	0x194297
	...

Disassembly of section .debug_aranges:

00000000 <.debug_aranges>:
   0:	0000004c 	syscall	0x1
   4:	00000002 	srl	$0,$0,0x0
   8:	00040000 	sll	$0,$4,0x0
	...
  14:	00000064 	0x64
  18:	00000000 	sll	$0,$0,0x0
  1c:	00000058 	0x58
  20:	00000000 	sll	$0,$0,0x0
  24:	000000b4 	teq	$0,$0,0x2
  28:	00000000 	sll	$0,$0,0x0
  2c:	00000064 	0x64
  30:	00000000 	sll	$0,$0,0x0
  34:	000000f4 	teq	$0,$0,0x3
  38:	00000000 	sll	$0,$0,0x0
  3c:	0000003c 	0x3c
  40:	00000000 	sll	$0,$0,0x0
  44:	0000004c 	syscall	0x1
	...

Disassembly of section .debug_ranges:

00000000 <.debug_ranges>:
   0:	00000000 	sll	$0,$0,0x0
   4:	00000064 	0x64
   8:	00000000 	sll	$0,$0,0x0
   c:	00000058 	0x58
  10:	00000000 	sll	$0,$0,0x0
  14:	000000b4 	teq	$0,$0,0x2
  18:	00000000 	sll	$0,$0,0x0
  1c:	00000064 	0x64
  20:	00000000 	sll	$0,$0,0x0
  24:	000000f4 	teq	$0,$0,0x3
  28:	00000000 	sll	$0,$0,0x0
  2c:	0000003c 	0x3c
  30:	00000000 	sll	$0,$0,0x0
  34:	0000004c 	syscall	0x1
	...

Disassembly of section .debug_line:

00000000 <.debug_line>:
   0:	00000115 	0x115
   4:	00610002 	0x610002
   8:	01010000 	0x1010000
   c:	000d0efb 	0xd0efb
  10:	01010101 	0x1010101
  14:	01000000 	0x1000000
  18:	2f010000 	sltiu	$1,$24,0
  1c:	2f727375 	sltiu	$18,$27,29557
  20:	2f62696c 	sltiu	$2,$27,26988
  24:	2d636367 	sltiu	$3,$11,25447
  28:	736f7263 	0x736f7263
  2c:	696d2f73 	0x696d2f73
  30:	6c2d7370 	0x6c2d7370
  34:	78756e69 	0x78756e69
  38:	756e672d 	jalx	5b99cb4 <UART_RX+0x5b99cb4>
  3c:	692f372f 	0x692f372f
  40:	756c636e 	jalx	5b18db8 <UART_RX+0x5b18db8>
  44:	00006564 	0x6564
  48:	746f6f62 	jalx	1bdbd88 <UART_RX+0x1bdbd88>
  4c:	64616f6c 	0x64616f6c
  50:	632e7265 	0x632e7265
  54:	00007070 	tge	$0,$0,0x1c1
  58:	74730000 	jalx	1cc0000 <UART_RX+0x1cc0000>
  5c:	746e6964 	jalx	1b9a590 <UART_RX+0x1b9a590>
  60:	6363672d 	0x6363672d
  64:	0100682e 	0x100682e
  68:	00000000 	sll	$0,$0,0x0
  6c:	00000205 	0x205
  70:	08190000 	j	640000 <UART_RX+0x640000>
  74:	1428023d 	bne	$1,$8,96c <UART_RX+0x96c>
  78:	001802f3 	tltu	$0,$24,0xb
  7c:	05000101 	bltz	$8,484 <UART_RX+0x484>
  80:	00000002 	srl	$0,$0,0x0
  84:	010d0300 	0x10d0300
  88:	142802bb 	bne	$1,$8,b78 <UART_RX+0xb78>
  8c:	001402f3 	tltu	$0,$20,0xb
  90:	05000101 	bltz	$8,498 <UART_RX+0x498>
  94:	00000002 	srl	$0,$0,0x0
  98:	01130300 	0x1130300
  9c:	75084bf3 	jalx	4212fcc <UART_RX+0x4212fcc>
  a0:	bb7508bb 	swr	$21,2235($27)
  a4:	08bb7508 	j	2edd420 <UART_RX+0x2edd420>
  a8:	18024b75 	0x18024b75
  ac:	00010100 	sll	$0,$1,0x4
  b0:	00000205 	0x205
  b4:	1f030000 	0x1f030000
  b8:	f33d0801 	0xf33d0801
  bc:	0285ab08 	0x285ab08
  c0:	0101001c 	0x101001c
  c4:	00020500 	sll	$0,$2,0x14
  c8:	03000000 	0x3000000
  cc:	3e080125 	0x3e080125
  d0:	01040200 	0x1040200
  d4:	bb068206 	swr	$6,-32250($24)
  d8:	02f37508 	0x2f37508
  dc:	02f3132c 	0x2f3132c
  e0:	0200142c 	0x200142c
  e4:	79030204 	0x79030204
  e8:	080a03ba 	j	280ee8 <UART_RX+0x280ee8>
  ec:	001c023c 	0x1c023c
  f0:	05000101 	bltz	$8,4f8 <UART_RX+0x4f8>
  f4:	00000002 	srl	$0,$0,0x0
  f8:	01330300 	0x1330300
  fc:	f3f20b03 	0xf3f20b03
 100:	01001c02 	0x1001c02
 104:	02050001 	movt	$0,$16,$fcc1
 108:	00000000 	sll	$0,$0,0x0
 10c:	0100c103 	0x100c103
 110:	bbf33d08 	swr	$19,15624($31)
 114:	01001c02 	0x1001c02
 118:	Address 0x0000000000000118 is out of bounds.


Disassembly of section .debug_str:

00000000 <.debug_str>:
   0:	54524155 	bnel	$2,$18,10558 <UART_RX+0x10558>
   4:	0058545f 	0x58545f
   8:	746c6168 	jalx	1b185a0 <UART_RX+0x1b185a0>
   c:	52415500 	beql	$18,$1,15410 <UART_RX+0x15410>
  10:	54535f54 	bnel	$2,$19,17d64 <UART_RX+0x17d64>
  14:	47005441 	c1	0x1005441
  18:	4320554e 	c0	0x120554e
  1c:	31312b2b 	andi	$17,$9,0x2b2b
  20:	342e3720 	ori	$14,$1,0x3720
  24:	2d20302e 	sltiu	$0,$9,12334
  28:	206c656d 	addi	$12,$3,25965
  2c:	69736d2d 	0x69736d2d
  30:	656c676e 	0x656c676e
  34:	6f6c662d 	0x6f6c662d
  38:	2d207461 	sltiu	$0,$9,29793
  3c:	6f67786d 	0x6f67786d
  40:	6d2d2074 	0x6d2d2074
  44:	612d6f6e 	0x612d6f6e
  48:	61636962 	0x61636962
  4c:	20736c6c 	addi	$19,$3,27756
  50:	61686d2d 	0x61686d2d
  54:	662d6472 	0x662d6472
  58:	74616f6c 	jalx	185bdb0 <UART_RX+0x185bdb0>
  5c:	696d2d20 	0x696d2d20
  60:	32337370 	andi	$19,$17,0x7370
  64:	6c6d2d20 	0x6c6d2d20
  68:	2063736c 	addi	$3,$3,29548
  6c:	6f6e6d2d 	0x6f6e6d2d
  70:	63786c2d 	0x63786c2d
  74:	78732d31 	0x78732d31
  78:	2d203163 	sltiu	$0,$9,12643
  7c:	2d6f6e6d 	sltiu	$15,$11,28269
  80:	72616873 	0x72616873
  84:	2d206465 	sltiu	$0,$9,25701
  88:	6962616d 	0x6962616d
  8c:	2032333d 	addi	$18,$1,13117
  90:	2d20672d 	sltiu	$0,$9,26413
  94:	3d647473 	0x3d647473
  98:	312b2b63 	andi	$11,$9,0x2b63
  9c:	662d2031 	0x662d2031
  a0:	636e7566 	0x636e7566
  a4:	6e6f6974 	0x6e6f6974
  a8:	6365732d 	0x6365732d
  ac:	6e6f6974 	0x6e6f6974
  b0:	662d2073 	0x662d2073
  b4:	61746164 	0x61746164
  b8:	6365732d 	0x6365732d
  bc:	6e6f6974 	0x6e6f6974
  c0:	662d2073 	0x662d2073
  c4:	65657266 	0x65657266
  c8:	6e617473 	0x6e617473
  cc:	676e6964 	0x676e6964
  d0:	6e662d20 	0x6e662d20
  d4:	75622d6f 	jalx	588b5bc <UART_RX+0x588b5bc>
  d8:	69746c69 	0x69746c69
  dc:	662d206e 	0x662d206e
  e0:	502d6f6e 	beql	$1,$13,1be9c <UART_RX+0x1be9c>
  e4:	75004549 	jalx	4011524 <UART_RX+0x4011524>
  e8:	6769736e 	0x6769736e
  ec:	2064656e 	addi	$4,$3,25966
  f0:	72616863 	0x72616863
  f4:	74656700 	jalx	1959c00 <UART_RX+0x1959c00>
  f8:	65740063 	0x65740063
  fc:	7300706d 	0x7300706d
 100:	74726f68 	jalx	1c9bda0 <UART_RX+0x1c9bda0>
 104:	736e7520 	0x736e7520
 108:	656e6769 	0x656e6769
 10c:	6e692064 	0x6e692064
 110:	6f620074 	0x6f620074
 114:	6f6c746f 	0x6f6c746f
 118:	72656461 	0x72656461
 11c:	7070632e 	0x7070632e
 120:	736e7500 	0x736e7500
 124:	656e6769 	0x656e6769
 128:	6e692064 	0x6e692064
 12c:	65670074 	0x65670074
 130:	6e656c74 	0x6e656c74
 134:	6e6f6c00 	0x6e6f6c00
 138:	6f6c2067 	0x6f6c2067
 13c:	7520676e 	jalx	4819db8 <UART_RX+0x4819db8>
 140:	6769736e 	0x6769736e
 144:	2064656e 	addi	$4,$3,25966
 148:	00746e69 	0x746e69
 14c:	746e6975 	jalx	1b9a5d4 <UART_RX+0x1b9a5d4>
 150:	00745f38 	0x745f38
 154:	676e6f6c 	0x676e6f6c
 158:	6e6f6c20 	0x6e6f6c20
 15c:	6e692067 	0x6e692067
 160:	6f620074 	0x6f620074
 164:	6f6c746f 	0x6f6c746f
 168:	72656461 	0x72656461
 16c:	74757000 	jalx	1d5c000 <UART_RX+0x1d5c000>
 170:	68730063 	0x68730063
 174:	2074726f 	addi	$20,$3,29295
 178:	00746e69 	0x746e69
 17c:	746e6d2f 	jalx	1b9b4bc <UART_RX+0x1b9b4bc>
 180:	632f642f 	0x632f642f
 184:	7365646f 	0x7365646f
 188:	2d77682f 	sltiu	$23,$11,26671
 18c:	39313032 	xori	$17,$9,0x3032
 190:	75747561 	jalx	5d1d584 <UART_RX+0x5d1d584>
 194:	6f2f6e6d 	0x6f2f6e6d
 198:	6e2d6772 	0x6e2d6772
 19c:	632f7465 	0x632f7465
 1a0:	3931646f 	xori	$17,$9,0x646f
 1a4:	32707267 	andi	$16,$19,0x7267
 1a8:	6968742f 	0x6968742f
 1ac:	6461706e 	0x6461706e
 1b0:	706f745f 	0x706f745f
 1b4:	6372732e 	0x6372732e
 1b8:	69732f73 	0x69732f73
 1bc:	2f315f6d 	sltiu	$17,$25,24429
 1c0:	2f77656e 	sltiu	$23,$27,25966
 1c4:	6863616d 	0x6863616d
 1c8:	2d656e69 	sltiu	$5,$11,28265
 1cc:	65646f63 	0x65646f63
 1d0:	6e65672d 	0x6e65672d
 1d4:	74617265 	jalx	185c994 <UART_RX+0x185c994>
 1d8:	7500726f 	jalx	401c9bc <UART_RX+0x401c9bc>
 1dc:	33746e69 	andi	$20,$27,0x6e69
 1e0:	00745f32 	tlt	$3,$20,0x17c
 1e4:	72616863 	0x72616863
 1e8:	74757000 	jalx	1d5c000 <UART_RX+0x1d5c000>
 1ec:	69730073 	0x69730073
 1f0:	64656e67 	0x64656e67
 1f4:	61686320 	0x61686320
 1f8:	41550072 	0x41550072
 1fc:	525f5452 	beql	$18,$31,15348 <UART_RX+0x15348>
 200:	75700058 	jalx	5c00160 <UART_RX+0x5c00160>
 204:	78656874 	0x78656874
	...

Disassembly of section .comment:

00000000 <.comment>:
   0:	43434700 	c0	0x1434700
   4:	5528203a 	bnel	$9,$8,80f0 <UART_RX+0x80f0>
   8:	746e7562 	jalx	1b9d588 <UART_RX+0x1b9d588>
   c:	2e372075 	sltiu	$23,$17,8309
  10:	2d302e34 	sltiu	$16,$9,11828
  14:	75627531 	jalx	589d4c4 <UART_RX+0x589d4c4>
  18:	3175746e 	andi	$21,$11,0x746e
  1c:	2e38317e 	sltiu	$24,$17,12670
  20:	312e3430 	andi	$14,$9,0x3430
  24:	2e372029 	sltiu	$23,$17,8233
  28:	00302e34 	teq	$1,$16,0xb8

Disassembly of section .eh_frame:

00000000 <.eh_frame>:
   0:	00000010 	mfhi	$0
   4:	00000000 	sll	$0,$0,0x0
   8:	00527a01 	0x527a01
   c:	011f7c01 	0x11f7c01
  10:	001d0d0b 	0x1d0d0b
  14:	00000020 	add	$0,$0,$0
  18:	00000018 	mult	$0,$0
  1c:	00000000 	sll	$0,$0,0x0
  20:	00000064 	0x64
  24:	080e4400 	j	391000 <UART_RX+0x391000>
  28:	44019e44 	0x44019e44
  2c:	48021e0d 	0x48021e0d
  30:	de481d0d 	ldc3	$8,7437($18)
  34:	0000000e 	0xe
  38:	00000020 	add	$0,$0,$0
  3c:	0000003c 	0x3c
  40:	00000000 	sll	$0,$0,0x0
  44:	00000058 	0x58
  48:	080e4400 	j	391000 <UART_RX+0x391000>
  4c:	44019e44 	0x44019e44
  50:	0d7c1e0d 	jal	5f07834 <UART_RX+0x5f07834>
  54:	0ede481d 	jal	b792074 <UART_RX+0xb792074>
  58:	00000000 	sll	$0,$0,0x0
  5c:	00000024 	and	$0,$0,$0
  60:	00000060 	0x60
  64:	00000000 	sll	$0,$0,0x0
  68:	000000b4 	teq	$0,$0,0x2
  6c:	200e4400 	addi	$14,$0,17408
  70:	9e019f48 	0x9e019f48
  74:	1e0d4402 	0x1e0d4402
  78:	1d0d9002 	0x1d0d9002
  7c:	0edfde4c 	jal	b7f7930 <UART_RX+0xb7f7930>
  80:	00000000 	sll	$0,$0,0x0
  84:	00000024 	and	$0,$0,$0
  88:	00000088 	0x88
  8c:	00000000 	sll	$0,$0,0x0
  90:	00000064 	0x64
  94:	180e4400 	0x180e4400
  98:	9e019f48 	0x9e019f48
  9c:	1e0d4402 	0x1e0d4402
  a0:	1d0d4002 	0x1d0d4002
  a4:	0edfde4c 	jal	b7f7930 <UART_RX+0xb7f7930>
  a8:	00000000 	sll	$0,$0,0x0
  ac:	00000024 	and	$0,$0,$0
  b0:	000000b0 	tge	$0,$0,0x2
  b4:	00000000 	sll	$0,$0,0x0
  b8:	000000f4 	teq	$0,$0,0x3
  bc:	200e4400 	addi	$14,$0,17408
  c0:	9e019f48 	0x9e019f48
  c4:	1e0d4402 	0x1e0d4402
  c8:	1d0dd002 	0x1d0dd002
  cc:	0edfde4c 	jal	b7f7930 <UART_RX+0xb7f7930>
  d0:	00000000 	sll	$0,$0,0x0
  d4:	00000020 	add	$0,$0,$0
  d8:	000000d8 	0xd8
  dc:	00000000 	sll	$0,$0,0x0
  e0:	0000003c 	0x3c
  e4:	180e4400 	0x180e4400
  e8:	9e019f48 	0x9e019f48
  ec:	1e0d4402 	0x1e0d4402
  f0:	4c1d0d58 	0x4c1d0d58
  f4:	000edfde 	0xedfde
  f8:	00000020 	add	$0,$0,$0
  fc:	000000fc 	0xfc
 100:	00000000 	sll	$0,$0,0x0
 104:	0000004c 	syscall	0x1
 108:	180e4400 	0x180e4400
 10c:	9e019f48 	0x9e019f48
 110:	1e0d4402 	0x1e0d4402
 114:	4c1d0d68 	0x4c1d0d68
 118:	000edfde 	0xedfde

Disassembly of section .gnu.attributes:

00000000 <.gnu.attributes>:
   0:	00000f41 	0xf41
   4:	756e6700 	jalx	5b99c00 <UART_RX+0x5b99c00>
   8:	00070100 	sll	$0,$7,0x4
   c:	02040000 	0x2040000
