
main.cpp.o:     file format elf32-tradlittlemips


Disassembly of section .reginfo:

00000000 <.reginfo>:
   0:	e0000014 	sc	$0,20($0)
	...

Disassembly of section .MIPS.abiflags:

00000000 <.MIPS.abiflags>:
   0:	01200000 	0x1200000
   4:	02000101 	0x2000101
	...
  10:	00000001 	movf	$0,$0,$fcc0
  14:	00000000 	sll	$0,$0,0x0

Disassembly of section .pdr:

00000000 <.pdr>:
   0:	00000000 	sll	$0,$0,0x0
   4:	c0000000 	ll	$0,0($0)
   8:	fffffffc 	sdc3	$31,-4($31)
	...
  14:	00000018 	mult	$0,$0
  18:	0000001e 	0x1e
  1c:	0000001f 	0x1f

Disassembly of section .rodata:

00000000 <.rodata>:
   0:	00005748 	0x5748
	...

Disassembly of section .text.main:

00000000 <main>:
   0:	27bdffe8 	addiu	$29,$29,-24
   4:	afbf0014 	sw	$31,20($29)
   8:	afbe0010 	sw	$30,16($29)
   c:	03a0f025 	or	$30,$29,$0
  10:	3c020000 	lui	$2,0x0
  14:	24440000 	addiu	$4,$2,0
  18:	0c000000 	jal	0 <main>
  1c:	00000000 	sll	$0,$0,0x0
  20:	00001025 	or	$2,$0,$0
  24:	03c0e825 	or	$29,$30,$0
  28:	8fbf0014 	lw	$31,20($29)
  2c:	8fbe0010 	lw	$30,16($29)
  30:	27bd0018 	addiu	$29,$29,24
  34:	03e00008 	jr	$31
  38:	00000000 	sll	$0,$0,0x0

Disassembly of section .debug_info:

00000000 <.debug_info>:
   0:	00000076 	tne	$0,$0,0x1
   4:	00000004 	sllv	$0,$0,$0
   8:	01040000 	0x1040000
   c:	000000e8 	0xe8
  10:	00005204 	0x5204
  14:	00005b00 	sll	$11,$0,0xc
	...
  24:	06010200 	bgez	$16,828 <main+0x828>
  28:	000000d2 	0xd2
  2c:	de050202 	ldc3	$5,514($16)
  30:	03000000 	0x3000000
  34:	6e690504 	0x6e690504
  38:	08020074 	j	801d0 <main+0x801d0>
  3c:	00000005 	0x5
  40:	08010200 	j	40800 <main+0x40800>
  44:	0000001b 	divu	$0,$0,$0
  48:	bf070202 	cache	0x7,514($24)
  4c:	02000000 	0x2000000
  50:	000e0704 	0xe0704
  54:	08020000 	j	80000 <main+0x80000>
  58:	00003b07 	0x3b07
  5c:	07040200 	0x7040200
  60:	00000029 	0x29
  64:	0000ba04 	0xba04
  68:	33040100 	andi	$4,$24,0x100
  6c:	00000000 	sll	$0,$0,0x0
  70:	3c000000 	lui	$0,0x0
  74:	01000000 	0x1000000
  78:	Address 0x0000000000000078 is out of bounds.


Disassembly of section .debug_abbrev:

00000000 <.debug_abbrev>:
   0:	25011101 	addiu	$1,$8,4353
   4:	030b130e 	0x30b130e
   8:	550e1b0e 	bnel	$8,$14,6c44 <main+0x6c44>
   c:	10011117 	beq	$0,$1,446c <main+0x446c>
  10:	02000017 	0x2000017
  14:	0b0b0024 	j	c2c0090 <main+0xc2c0090>
  18:	0e030b3e 	jal	80c2cf8 <main+0x80c2cf8>
  1c:	24030000 	addiu	$3,$0,0
  20:	3e0b0b00 	0x3e0b0b00
  24:	0008030b 	0x8030b
  28:	002e0400 	0x2e0400
  2c:	0e03193f 	jal	80c64fc <main+0x80c64fc>
  30:	0b3b0b3a 	j	cec2ce8 <main+0xcec2ce8>
  34:	01111349 	0x1111349
  38:	18400612 	blez	$2,1884 <main+0x1884>
  3c:	00194296 	0x194296
	...

Disassembly of section .debug_aranges:

00000000 <.debug_aranges>:
   0:	0000001c 	0x1c
   4:	00000002 	srl	$0,$0,0x0
   8:	00040000 	sll	$0,$4,0x0
	...
  14:	0000003c 	0x3c
	...

Disassembly of section .debug_ranges:

00000000 <.debug_ranges>:
   0:	00000000 	sll	$0,$0,0x0
   4:	0000003c 	0x3c
	...

Disassembly of section .debug_line:

00000000 <.debug_line>:
   0:	00000035 	0x35
   4:	001f0002 	srl	$0,$31,0x0
   8:	01010000 	0x1010000
   c:	000d0efb 	0xd0efb
  10:	01010101 	0x1010101
  14:	01000000 	0x1000000
  18:	00010000 	sll	$0,$1,0x0
  1c:	6e69616d 	0x6e69616d
  20:	7070632e 	0x7070632e
  24:	00000000 	sll	$0,$0,0x0
  28:	02050000 	0x2050000
  2c:	00000000 	sll	$0,$0,0x0
  30:	4bf3f315 	c2	0x1f3f315
  34:	01001802 	0x1001802
  38:	Address 0x0000000000000038 is out of bounds.


Disassembly of section .debug_str:

00000000 <.debug_str>:
   0:	676e6f6c 	0x676e6f6c
   4:	6e6f6c20 	0x6e6f6c20
   8:	6e692067 	0x6e692067
   c:	6e750074 	0x6e750074
  10:	6e676973 	0x6e676973
  14:	69206465 	0x69206465
  18:	7500746e 	jalx	401d1b8 <main+0x401d1b8>
  1c:	6769736e 	0x6769736e
  20:	2064656e 	addi	$4,$3,25966
  24:	72616863 	0x72616863
  28:	6e6f6c00 	0x6e6f6c00
  2c:	6e752067 	0x6e752067
  30:	6e676973 	0x6e676973
  34:	69206465 	0x69206465
  38:	6c00746e 	0x6c00746e
  3c:	20676e6f 	addi	$7,$3,28271
  40:	676e6f6c 	0x676e6f6c
  44:	736e7520 	0x736e7520
  48:	656e6769 	0x656e6769
  4c:	6e692064 	0x6e692064
  50:	616d0074 	0x616d0074
  54:	632e6e69 	0x632e6e69
  58:	2f007070 	sltiu	$0,$24,28784
  5c:	2f746e6d 	sltiu	$20,$27,28269
  60:	6f632f64 	0x6f632f64
  64:	2f736564 	sltiu	$19,$27,25956
  68:	322d7768 	andi	$13,$17,0x7768
  6c:	61393130 	0x61393130
  70:	6d757475 	0x6d757475
  74:	726f2f6e 	0x726f2f6e
  78:	656e2d67 	0x656e2d67
  7c:	6f632f74 	0x6f632f74
  80:	67393164 	0x67393164
  84:	2f327072 	sltiu	$18,$25,28786
  88:	6e696874 	0x6e696874
  8c:	5f646170 	0x5f646170
  90:	2e706f74 	sltiu	$16,$19,28532
  94:	73637273 	0x73637273
  98:	6d69732f 	0x6d69732f
  9c:	6e2f315f 	0x6e2f315f
  a0:	6d2f7765 	0x6d2f7765
  a4:	69686361 	0x69686361
  a8:	632d656e 	0x632d656e
  ac:	2d65646f 	sltiu	$5,$11,25711
  b0:	656e6567 	0x656e6567
  b4:	6f746172 	0x6f746172
  b8:	616d0072 	0x616d0072
  bc:	73006e69 	0x73006e69
  c0:	74726f68 	jalx	1c9bda0 <main+0x1c9bda0>
  c4:	736e7520 	0x736e7520
  c8:	656e6769 	0x656e6769
  cc:	6e692064 	0x6e692064
  d0:	69730074 	0x69730074
  d4:	64656e67 	0x64656e67
  d8:	61686320 	0x61686320
  dc:	68730072 	0x68730072
  e0:	2074726f 	addi	$20,$3,29295
  e4:	00746e69 	0x746e69
  e8:	20554e47 	addi	$21,$2,20039
  ec:	312b2b43 	andi	$11,$9,0x2b43
  f0:	2e372031 	sltiu	$23,$17,8241
  f4:	20302e34 	addi	$16,$1,11828
  f8:	6c656d2d 	0x6c656d2d
  fc:	736d2d20 	0x736d2d20
 100:	6c676e69 	0x6c676e69
 104:	6c662d65 	0x6c662d65
 108:	2074616f 	addi	$20,$3,24943
 10c:	67786d2d 	0x67786d2d
 110:	2d20746f 	sltiu	$0,$9,29807
 114:	2d6f6e6d 	sltiu	$15,$11,28269
 118:	63696261 	0x63696261
 11c:	736c6c61 	0x736c6c61
 120:	686d2d20 	0x686d2d20
 124:	2d647261 	sltiu	$4,$11,29281
 128:	616f6c66 	0x616f6c66
 12c:	6d2d2074 	0x6d2d2074
 130:	33737069 	andi	$19,$27,0x7069
 134:	6d2d2032 	0x6d2d2032
 138:	63736c6c 	0x63736c6c
 13c:	6e6d2d20 	0x6e6d2d20
 140:	786c2d6f 	0x786c2d6f
 144:	732d3163 	0x732d3163
 148:	20316378 	addi	$17,$1,25464
 14c:	6f6e6d2d 	0x6f6e6d2d
 150:	6168732d 	0x6168732d
 154:	20646572 	addi	$4,$3,25970
 158:	62616d2d 	0x62616d2d
 15c:	32333d69 	andi	$19,$17,0x3d69
 160:	20672d20 	addi	$7,$3,11552
 164:	6474732d 	0x6474732d
 168:	2b2b633d 	slti	$11,$25,25405
 16c:	2d203131 	sltiu	$0,$9,12593
 170:	6e756666 	0x6e756666
 174:	6f697463 	0x6f697463
 178:	65732d6e 	0x65732d6e
 17c:	6f697463 	0x6f697463
 180:	2d20736e 	sltiu	$0,$9,29550
 184:	74616466 	jalx	1859198 <main+0x1859198>
 188:	65732d61 	0x65732d61
 18c:	6f697463 	0x6f697463
 190:	2d20736e 	sltiu	$0,$9,29550
 194:	65726666 	0x65726666
 198:	61747365 	0x61747365
 19c:	6e69646e 	0x6e69646e
 1a0:	662d2067 	0x662d2067
 1a4:	622d6f6e 	0x622d6f6e
 1a8:	746c6975 	jalx	1b1a5d4 <main+0x1b1a5d4>
 1ac:	2d206e69 	sltiu	$0,$9,28265
 1b0:	2d6f6e66 	sltiu	$15,$11,28262
 1b4:	00454950 	0x454950

Disassembly of section .comment:

00000000 <.comment>:
   0:	43434700 	c0	0x1434700
   4:	5528203a 	bnel	$9,$8,80f0 <main+0x80f0>
   8:	746e7562 	jalx	1b9d588 <main+0x1b9d588>
   c:	2e372075 	sltiu	$23,$17,8309
  10:	2d302e34 	sltiu	$16,$9,11828
  14:	75627531 	jalx	589d4c4 <main+0x589d4c4>
  18:	3175746e 	andi	$21,$11,0x746e
  1c:	2e38317e 	sltiu	$24,$17,12670
  20:	312e3430 	andi	$14,$9,0x3430
  24:	2e372029 	sltiu	$23,$17,8233
  28:	00302e34 	teq	$1,$16,0xb8

Disassembly of section .eh_frame:

00000000 <.eh_frame>:
   0:	00000010 	mfhi	$0
   4:	00000000 	sll	$0,$0,0x0
   8:	00527a01 	0x527a01
   c:	011f7c01 	0x11f7c01
  10:	001d0d0b 	0x1d0d0b
  14:	00000020 	add	$0,$0,$0
  18:	00000018 	mult	$0,$0
  1c:	00000000 	sll	$0,$0,0x0
  20:	0000003c 	0x3c
  24:	180e4400 	0x180e4400
  28:	9e019f48 	0x9e019f48
  2c:	1e0d4402 	0x1e0d4402
  30:	4c1d0d58 	0x4c1d0d58
  34:	000edfde 	0xedfde

Disassembly of section .gnu.attributes:

00000000 <.gnu.attributes>:
   0:	00000f41 	0xf41
   4:	756e6700 	jalx	5b99c00 <main+0x5b99c00>
   8:	00070100 	sll	$0,$7,0x4
   c:	02040000 	0x2040000
