
ta_hal.cpp.o:     file format elf32-tradlittlemips


Disassembly of section .reginfo:

00000000 <.reginfo>:
   0:	e00301fc 	sc	$3,508($0)
	...

Disassembly of section .MIPS.abiflags:

00000000 <.MIPS.abiflags>:
   0:	01200000 	0x1200000
   4:	02000101 	0x2000101
	...
  10:	00000001 	movf	$0,$0,$fcc0
  14:	00000000 	sll	$0,$0,0x0

Disassembly of section .pdr:

00000000 <.pdr>:
   0:	00000000 	sll	$0,$0,0x0
   4:	40000000 	mfc0	$0,c0_index
   8:	fffffffc 	sdc3	$31,-4($31)
	...
  14:	00000008 	jr	$0
  18:	0000001e 	0x1e
  1c:	0000001f 	0x1f
  20:	00000000 	sll	$0,$0,0x0
  24:	40000000 	mfc0	$0,c0_index
  28:	fffffffc 	sdc3	$31,-4($31)
	...
  34:	00000008 	jr	$0
  38:	0000001e 	0x1e
  3c:	0000001f 	0x1f
  40:	00000000 	sll	$0,$0,0x0
  44:	c0030000 	ll	$3,0($0)
  48:	fffffffc 	sdc3	$31,-4($31)
	...
  54:	00000030 	tge	$0,$0
  58:	0000001e 	0x1e
  5c:	0000001f 	0x1f
  60:	00000000 	sll	$0,$0,0x0
  64:	40000000 	mfc0	$0,c0_index
  68:	fffffffc 	sdc3	$31,-4($31)
	...
  74:	00000010 	mfhi	$0
  78:	0000001e 	0x1e
  7c:	0000001f 	0x1f

Disassembly of section .rodata._ZL19BUFFER_TAIL_ADDRESS:

00000000 <_ZL19BUFFER_TAIL_ADDRESS>:
   0:	bfd00400 	cache	0x10,1024($30)

Disassembly of section .rodata._ZL20SEND_CONTROL_ADDRESS:

00000000 <_ZL20SEND_CONTROL_ADDRESS>:
   0:	bfd00408 	cache	0x10,1032($30)

Disassembly of section .rodata._ZL18SEND_STATE_ADDRESS:

00000000 <_ZL18SEND_STATE_ADDRESS>:
   0:	bfd00404 	cache	0x10,1028($30)

Disassembly of section .rodata._ZL19BUFFER_BASE_ADDRESS:

00000000 <_ZL19BUFFER_BASE_ADDRESS>:
   0:	80600000 	lb	$0,0($3)

Disassembly of section .rodata._ZL17ROUTER_TABLE_BASE:

00000000 <_ZL17ROUTER_TABLE_BASE>:
   0:	bfd00410 	cache	0x10,1040($30)

Disassembly of section .text.Init:

00000000 <Init>:
   0:	27bdfff8 	addiu	$29,$29,-8
   4:	afbe0004 	sw	$30,4($29)
   8:	03a0f025 	or	$30,$29,$0
   c:	afc40008 	sw	$4,8($30)
  10:	00001025 	or	$2,$0,$0
  14:	03c0e825 	or	$29,$30,$0
  18:	8fbe0004 	lw	$30,4($29)
  1c:	27bd0008 	addiu	$29,$29,8
  20:	03e00008 	jr	$31
  24:	00000000 	sll	$0,$0,0x0

Disassembly of section .text.GetTicks:

00000000 <GetTicks>:
   0:	27bdfff8 	addiu	$29,$29,-8
   4:	afbe0004 	sw	$30,4($29)
   8:	03a0f025 	or	$30,$29,$0
   c:	00001025 	or	$2,$0,$0
  10:	00001825 	or	$3,$0,$0
  14:	03c0e825 	or	$29,$30,$0
  18:	8fbe0004 	lw	$30,4($29)
  1c:	27bd0008 	addiu	$29,$29,8
  20:	03e00008 	jr	$31
  24:	00000000 	sll	$0,$0,0x0

Disassembly of section .text.ReceiveIPPacket:

00000000 <ReceiveIPPacket>:
   0:	27bdffd0 	addiu	$29,$29,-48
   4:	afbf002c 	sw	$31,44($29)
   8:	afbe0028 	sw	$30,40($29)
   c:	afb10024 	sw	$17,36($29)
  10:	afb00020 	sw	$16,32($29)
  14:	03a0f025 	or	$30,$29,$0
  18:	afc40030 	sw	$4,48($30)
  1c:	afc50034 	sw	$5,52($30)
  20:	afc60038 	sw	$6,56($30)
  24:	afc7003c 	sw	$7,60($30)
  28:	3c02bfd0 	lui	$2,0xbfd0
  2c:	34420400 	ori	$2,$2,0x400
  30:	afc20010 	sw	$2,16($30)
  34:	0c000000 	jal	0 <ReceiveIPPacket>
  38:	00000000 	sll	$0,$0,0x0
  3c:	afc20018 	sw	$2,24($30)
  40:	afc3001c 	sw	$3,28($30)
  44:	8fc30040 	lw	$3,64($30)
  48:	2402ffff 	addiu	$2,$0,-1
  4c:	1462000d 	bne	$3,$2,84 <ReceiveIPPacket+0x84>
  50:	00000000 	sll	$0,$0,0x0
  54:	8fc30044 	lw	$3,68($30)
  58:	2402ffff 	addiu	$2,$0,-1
  5c:	14620009 	bne	$3,$2,84 <ReceiveIPPacket+0x84>
  60:	00000000 	sll	$0,$0,0x0
  64:	8fc20040 	lw	$2,64($30)
  68:	8fc30044 	lw	$3,68($30)
  6c:	000327c0 	sll	$4,$3,0x1f
  70:	00028042 	srl	$16,$2,0x1
  74:	00908025 	or	$16,$4,$16
  78:	00038842 	srl	$17,$3,0x1
  7c:	afd00040 	sw	$16,64($30)
  80:	afd10044 	sw	$17,68($30)
  84:	0c000000 	jal	0 <ReceiveIPPacket>
  88:	00000000 	sll	$0,$0,0x0
  8c:	00402025 	or	$4,$2,$0
  90:	00602825 	or	$5,$3,$0
  94:	8fc60018 	lw	$6,24($30)
  98:	8fc7001c 	lw	$7,28($30)
  9c:	00861023 	subu	$2,$4,$6
  a0:	0082402b 	sltu	$8,$4,$2
  a4:	00a71823 	subu	$3,$5,$7
  a8:	00682023 	subu	$4,$3,$8
  ac:	00801825 	or	$3,$4,$0
  b0:	00402025 	or	$4,$2,$0
  b4:	00602825 	or	$5,$3,$0
  b8:	8fc20040 	lw	$2,64($30)
  bc:	8fc30044 	lw	$3,68($30)
  c0:	24070001 	addiu	$7,$0,1
  c4:	00a3302b 	sltu	$6,$5,$3
  c8:	14c00007 	bnez	$6,e8 <ReceiveIPPacket+0xe8>
  cc:	00000000 	sll	$0,$0,0x0
  d0:	00a03025 	or	$6,$5,$0
  d4:	14660005 	bne	$3,$6,ec <ReceiveIPPacket+0xec>
  d8:	00000000 	sll	$0,$0,0x0
  dc:	0082102b 	sltu	$2,$4,$2
  e0:	10400002 	beqz	$2,ec <ReceiveIPPacket+0xec>
  e4:	00000000 	sll	$0,$0,0x0
  e8:	00003825 	or	$7,$0,$0
  ec:	30e200ff 	andi	$2,$7,0xff
  f0:	10400004 	beqz	$2,104 <ReceiveIPPacket+0x104>
  f4:	00000000 	sll	$0,$0,0x0
  f8:	00001025 	or	$2,$0,$0
  fc:	1000002f 	beqz	$0,1bc <ReceiveIPPacket+0x1bc>
 100:	00000000 	sll	$0,$0,0x0
 104:	8fc20010 	lw	$2,16($30)
 108:	8c430000 	lw	$3,0($2)
 10c:	8fc20030 	lw	$2,48($30)
 110:	00621026 	xor	$2,$3,$2
 114:	0002102b 	sltu	$2,$0,$2
 118:	304200ff 	andi	$2,$2,0xff
 11c:	14400003 	bnez	$2,12c <ReceiveIPPacket+0x12c>
 120:	00000000 	sll	$0,$0,0x0
 124:	1000ffd7 	beqz	$0,84 <ReceiveIPPacket+0x84>
 128:	00000000 	sll	$0,$0,0x0
 12c:	00000000 	sll	$0,$0,0x0
 130:	8fc20030 	lw	$2,48($30)
 134:	24430001 	addiu	$3,$2,1
 138:	afc30030 	sw	$3,48($30)
 13c:	000212c0 	sll	$2,$2,0xb
 140:	00401825 	or	$3,$2,$0
 144:	3c028060 	lui	$2,0x8060
 148:	34420004 	ori	$2,$2,0x4
 14c:	00621021 	addu	$2,$3,$2
 150:	afc20034 	sw	$2,52($30)
 154:	8fc20034 	lw	$2,52($30)
 158:	8c430000 	lw	$3,0($2)
 15c:	8fc20038 	lw	$2,56($30)
 160:	ac430000 	sw	$3,0($2)
 164:	8fc20038 	lw	$2,56($30)
 168:	24420004 	addiu	$2,$2,4
 16c:	8fc30034 	lw	$3,52($30)
 170:	94630004 	lhu	$3,4($3)
 174:	a4430000 	sh	$3,0($2)
 178:	8fc20034 	lw	$2,52($30)
 17c:	8c430006 	lw	$3,6($2)
 180:	8fc2003c 	lw	$2,60($30)
 184:	ac430000 	sw	$3,0($2)
 188:	8fc2003c 	lw	$2,60($30)
 18c:	24420004 	addiu	$2,$2,4
 190:	8fc30034 	lw	$3,52($30)
 194:	9463000a 	lhu	$3,10($3)
 198:	a4430000 	sh	$3,0($2)
 19c:	8fc20034 	lw	$2,52($30)
 1a0:	2442000f 	addiu	$2,$2,15
 1a4:	90420000 	lbu	$2,0($2)
 1a8:	2443ffff 	addiu	$3,$2,-1
 1ac:	8fc20048 	lw	$2,72($30)
 1b0:	ac430000 	sw	$3,0($2)
 1b4:	8fc20034 	lw	$2,52($30)
 1b8:	8c420000 	lw	$2,0($2)
 1bc:	03c0e825 	or	$29,$30,$0
 1c0:	8fbf002c 	lw	$31,44($29)
 1c4:	8fbe0028 	lw	$30,40($29)
 1c8:	8fb10024 	lw	$17,36($29)
 1cc:	8fb00020 	lw	$16,32($29)
 1d0:	27bd0030 	addiu	$29,$29,48
 1d4:	03e00008 	jr	$31
 1d8:	00000000 	sll	$0,$0,0x0

Disassembly of section .text.SendIPPacket:

00000000 <SendIPPacket>:
   0:	27bdfff0 	addiu	$29,$29,-16
   4:	afbe000c 	sw	$30,12($29)
   8:	03a0f025 	or	$30,$29,$0
   c:	afc40010 	sw	$4,16($30)
  10:	afc50014 	sw	$5,20($30)
  14:	afc60018 	sw	$6,24($30)
  18:	afc7001c 	sw	$7,28($30)
  1c:	8fc20014 	lw	$2,20($30)
  20:	24420006 	addiu	$2,$2,6
  24:	8fc3001c 	lw	$3,28($30)
  28:	8c630000 	lw	$3,0($3)
  2c:	ac430000 	sw	$3,0($2)
  30:	8c430000 	lw	$3,0($2)
  34:	8fc20014 	lw	$2,20($30)
  38:	ac430000 	sw	$3,0($2)
  3c:	8fc20014 	lw	$2,20($30)
  40:	2442000a 	addiu	$2,$2,10
  44:	8fc3001c 	lw	$3,28($30)
  48:	94630004 	lhu	$3,4($3)
  4c:	a4430000 	sh	$3,0($2)
  50:	8fc30014 	lw	$3,20($30)
  54:	24630004 	addiu	$3,$3,4
  58:	94420000 	lhu	$2,0($2)
  5c:	a4620000 	sh	$2,0($3)
  60:	8fc20010 	lw	$2,16($30)
  64:	8c420000 	lw	$2,0($2)
  68:	304300ff 	andi	$3,$2,0xff
  6c:	8fc20014 	lw	$2,20($30)
  70:	2442000f 	addiu	$2,$2,15
  74:	24630001 	addiu	$3,$3,1
  78:	306300ff 	andi	$3,$3,0xff
  7c:	a0430000 	sb	$3,0($2)
  80:	8fc20014 	lw	$2,20($30)
  84:	2442fffc 	addiu	$2,$2,-4
  88:	afc20014 	sw	$2,20($30)
  8c:	8fc30018 	lw	$3,24($30)
  90:	8fc20014 	lw	$2,20($30)
  94:	ac430000 	sw	$3,0($2)
  98:	3c02bfd0 	lui	$2,0xbfd0
  9c:	34420404 	ori	$2,$2,0x404
  a0:	afc20000 	sw	$2,0($30)
  a4:	3c02bfd0 	lui	$2,0xbfd0
  a8:	34420404 	ori	$2,$2,0x404
  ac:	8c420000 	lw	$2,0($2)
  b0:	30420001 	andi	$2,$2,0x1
  b4:	10400003 	beqz	$2,c4 <SendIPPacket+0xc4>
  b8:	00000000 	sll	$0,$0,0x0
  bc:	1000fff9 	beqz	$0,a4 <SendIPPacket+0xa4>
  c0:	00000000 	sll	$0,$0,0x0
  c4:	00000000 	sll	$0,$0,0x0
  c8:	3c02bfd0 	lui	$2,0xbfd0
  cc:	34420408 	ori	$2,$2,0x408
  d0:	8fc30014 	lw	$3,20($30)
  d4:	ac430000 	sw	$3,0($2)
  d8:	00000000 	sll	$0,$0,0x0
  dc:	03c0e825 	or	$29,$30,$0
  e0:	8fbe000c 	lw	$30,12($29)
  e4:	27bd0010 	addiu	$29,$29,16
  e8:	03e00008 	jr	$31
  ec:	00000000 	sll	$0,$0,0x0

Disassembly of section .debug_info:

00000000 <.debug_info>:
   0:	0000024c 	syscall	0x9
   4:	00000004 	sllv	$0,$0,$0
   8:	01040000 	0x1040000
   c:	00000046 	rorv	$0,$0,$0
  10:	00003b04 	0x3b04
  14:	00018800 	sll	$17,$1,0x0
	...
  24:	06010200 	bgez	$16,828 <_ZL19BUFFER_TAIL_ADDRESS+0x828>
  28:	000002f2 	tlt	$0,$0,0xb
  2c:	a8050202 	swl	$5,514($0)
  30:	03000002 	0x3000002
  34:	6e690504 	0x6e690504
  38:	0f040074 	jal	c1001d0 <_ZL19BUFFER_TAIL_ADDRESS+0xc1001d0>
  3c:	02000000 	0x2000000
  40:	0000452b 	0x452b
  44:	05080200 	tgei	$8,512
  48:	0000026d 	0x26d
  4c:	00025104 	0x25104
  50:	572e0200 	bnel	$25,$14,854 <_ZL19BUFFER_TAIL_ADDRESS+0x854>
  54:	02000000 	0x2000000
  58:	01280801 	movf	$1,$9,$fcc2
  5c:	c3040000 	ll	$4,0($24)
  60:	02000002 	0x2000002
  64:	00006931 	tgeu	$0,$0,0x1a4
  68:	07020200 	bltzl	$24,86c <_ZL19BUFFER_TAIL_ADDRESS+0x86c>
  6c:	00000159 	0x159
  70:	0002cc04 	0x2cc04
  74:	85340200 	lh	$20,512($9)
  78:	05000000 	bltz	$8,7c <.debug_info+0x7c>
  7c:	00000070 	tge	$0,$0,0x1
  80:	00007006 	srlv	$14,$0,$0
  84:	07040200 	0x7040200
  88:	00000225 	0x225
  8c:	00011604 	0x11604
  90:	97370200 	lhu	$23,512($25)
  94:	02000000 	0x2000000
  98:	023a0708 	0x23a0708
  9c:	2b040000 	slti	$4,$24,0
  a0:	03000000 	0x3000000
  a4:	0000a906 	0xa906
  a8:	07040200 	0x7040200
  ac:	0000013f 	0x13f
  b0:	0002d504 	0x2d504
  b4:	70050400 	0x70050400
  b8:	07000000 	bltz	$24,bc <.debug_info+0xbc>
  bc:	00000259 	0x259
  c0:	007b0301 	0x7b0301
  c4:	03050000 	0x3050000
  c8:	00000000 	sll	$0,$0,0x0
  cc:	00028307 	0x28307
  d0:	7b040100 	0x7b040100
  d4:	05000000 	bltz	$8,d8 <.debug_info+0xd8>
  d8:	00000003 	sra	$0,$0,0x0
  dc:	02df0700 	0x2df0700
  e0:	05010000 	bgez	$8,e4 <.debug_info+0xe4>
  e4:	0000007b 	0x7b
  e8:	00000305 	0x305
  ec:	11070000 	beq	$8,$7,f0 <.debug_info+0xf0>
  f0:	01000002 	0x1000002
  f4:	00007b06 	0x7b06
  f8:	00030500 	sll	$0,$3,0x14
  fc:	07000000 	bltz	$24,100 <.debug_info+0x100>
 100:	000002fe 	0x2fe
 104:	007b0701 	0x7b0701
 108:	03050000 	0x3050000
 10c:	00000000 	sll	$0,$0,0x0
 110:	00017108 	0x17108
 114:	332f0100 	andi	$15,$25,0x100
 118:	00000000 	sll	$0,$0,0x0
 11c:	f0000000 	0xf0000000
 120:	01000000 	0x1000000
 124:	0001709c 	0x1709c
 128:	011f0900 	0x11f0900
 12c:	2f010000 	sltiu	$1,$24,0
 130:	00000033 	tltu	$0,$0
 134:	09009102 	j	4024408 <_ZL19BUFFER_TAIL_ADDRESS+0x4024408>
 138:	000002bc 	0x2bc
 13c:	01702f01 	0x1702f01
 140:	91020000 	lbu	$2,0($8)
 144:	03100904 	0x3100904
 148:	2f010000 	sltiu	$1,$24,0
 14c:	0000009e 	0x9e
 150:	09089102 	j	4224408 <_ZL19BUFFER_TAIL_ADDRESS+0x4224408>
 154:	00000017 	0x17
 158:	01703001 	movf	$6,$11,$fcc4
 15c:	91020000 	lbu	$2,0($8)
 160:	001e070c 	syscall	0x781c
 164:	37010000 	ori	$1,$24,0x0
 168:	00000176 	tne	$0,$0,0x5
 16c:	00709102 	0x709102
 170:	004c040a 	0x4c040a
 174:	040a0000 	tlti	$0,0
 178:	00000080 	sll	$0,$0,0x2
 17c:	0002980b 	movn	$19,$0,$2
 180:	33130100 	andi	$19,$24,0x100
 184:	00000000 	sll	$0,$0,0x0
 188:	dc000000 	ldc3	$0,0($0)
 18c:	01000001 	movf	$0,$8,$fcc0
 190:	0002069c 	0x2069c
 194:	017e0900 	0x17e0900
 198:	13010000 	beq	$24,$1,19c <.debug_info+0x19c>
 19c:	00000033 	tltu	$0,$0
 1a0:	09009102 	j	4024408 <_ZL19BUFFER_TAIL_ADDRESS+0x4024408>
 1a4:	000002bc 	0x2bc
 1a8:	01701301 	0x1701301
 1ac:	91020000 	lbu	$2,0($8)
 1b0:	01510904 	0x1510904
 1b4:	14010000 	bne	$0,$1,1b8 <.debug_info+0x1b8>
 1b8:	00000170 	tge	$0,$0,0x5
 1bc:	09089102 	j	4224408 <_ZL19BUFFER_TAIL_ADDRESS+0x4224408>
 1c0:	00000232 	tlt	$0,$0,0x8
 1c4:	01701401 	0x1701401
 1c8:	91020000 	lbu	$2,0($8)
 1cc:	027b090c 	syscall	0x9ec24
 1d0:	14010000 	bne	$0,$1,1d4 <.debug_info+0x1d4>
 1d4:	0000003a 	0x3a
 1d8:	09109102 	j	4424408 <_ZL19BUFFER_TAIL_ADDRESS+0x4424408>
 1dc:	0000011f 	0x11f
 1e0:	02061501 	0x2061501
 1e4:	91020000 	lbu	$2,0($8)
 1e8:	00000718 	0x718
 1ec:	18010000 	0x18010000
 1f0:	00000176 	tne	$0,$0,0x5
 1f4:	07609102 	bltz	$27,fffe4600 <_ZL19BUFFER_TAIL_ADDRESS+0xfffe4600>
 1f8:	000002b2 	tlt	$0,$0,0xa
 1fc:	008c1901 	0x8c1901
 200:	91020000 	lbu	$2,0($8)
 204:	040a0068 	tlti	$0,104
 208:	00000033 	tltu	$0,$0
 20c:	0000320c 	syscall	0xc8
 210:	8c0e0100 	lw	$14,256($0)
 214:	00000000 	sll	$0,$0,0x0
 218:	28000000 	slti	$0,$0,0
 21c:	01000000 	0x1000000
 220:	016c089c 	0x16c089c
 224:	09010000 	j	4040000 <_ZL19BUFFER_TAIL_ADDRESS+0x4040000>
 228:	00000033 	tltu	$0,$0
 22c:	00000000 	sll	$0,$0,0x0
 230:	00000028 	0x28
 234:	02499c01 	0x2499c01
 238:	36090000 	ori	$9,$16,0x0
 23c:	01000001 	movf	$0,$8,$fcc0
 240:	00024909 	0x24909
 244:	00910200 	0x910200
 248:	b0040a00 	0xb0040a00
 24c:	00000000 	sll	$0,$0,0x0

Disassembly of section .debug_abbrev:

00000000 <.debug_abbrev>:
   0:	25011101 	addiu	$1,$8,4353
   4:	030b130e 	0x30b130e
   8:	550e1b0e 	bnel	$8,$14,6c44 <_ZL19BUFFER_TAIL_ADDRESS+0x6c44>
   c:	10011117 	beq	$0,$1,446c <_ZL19BUFFER_TAIL_ADDRESS+0x446c>
  10:	02000017 	0x2000017
  14:	0b0b0024 	j	c2c0090 <_ZL19BUFFER_TAIL_ADDRESS+0xc2c0090>
  18:	0e030b3e 	jal	80c2cf8 <_ZL19BUFFER_TAIL_ADDRESS+0x80c2cf8>
  1c:	24030000 	addiu	$3,$0,0
  20:	3e0b0b00 	0x3e0b0b00
  24:	0008030b 	0x8030b
  28:	00160400 	sll	$0,$22,0x10
  2c:	0b3a0e03 	j	ce8380c <_ZL19BUFFER_TAIL_ADDRESS+0xce8380c>
  30:	13490b3b 	beq	$26,$9,2d20 <_ZL19BUFFER_TAIL_ADDRESS+0x2d20>
  34:	26050000 	addiu	$5,$16,0
  38:	00134900 	sll	$9,$19,0x4
  3c:	00350600 	0x350600
  40:	00001349 	0x1349
  44:	03003407 	0x3003407
  48:	3b0b3a0e 	xori	$11,$24,0x3a0e
  4c:	0213490b 	0x213490b
  50:	08000018 	j	60 <.debug_abbrev+0x60>
  54:	193f012e 	0x193f012e
  58:	0b3a0e03 	j	ce8380c <_ZL19BUFFER_TAIL_ADDRESS+0xce8380c>
  5c:	13490b3b 	beq	$26,$9,2d4c <_ZL19BUFFER_TAIL_ADDRESS+0x2d4c>
  60:	06120111 	bltzall	$16,4a8 <_ZL19BUFFER_TAIL_ADDRESS+0x4a8>
  64:	42971840 	c0	0x971840
  68:	00130119 	0x130119
  6c:	00050900 	sll	$1,$5,0x4
  70:	0b3a0e03 	j	ce8380c <_ZL19BUFFER_TAIL_ADDRESS+0xce8380c>
  74:	13490b3b 	beq	$26,$9,2d64 <_ZL19BUFFER_TAIL_ADDRESS+0x2d64>
  78:	00001802 	srl	$3,$0,0x0
  7c:	0b000f0a 	j	c003c28 <_ZL19BUFFER_TAIL_ADDRESS+0xc003c28>
  80:	0013490b 	0x13490b
  84:	012e0b00 	0x12e0b00
  88:	0e03193f 	jal	80c64fc <_ZL19BUFFER_TAIL_ADDRESS+0x80c64fc>
  8c:	0b3b0b3a 	j	cec2ce8 <_ZL19BUFFER_TAIL_ADDRESS+0xcec2ce8>
  90:	01111349 	0x1111349
  94:	18400612 	blez	$2,18e0 <_ZL19BUFFER_TAIL_ADDRESS+0x18e0>
  98:	01194296 	0x1194296
  9c:	0c000013 	jal	4c <.debug_abbrev+0x4c>
  a0:	193f002e 	0x193f002e
  a4:	0b3a0e03 	j	ce8380c <_ZL19BUFFER_TAIL_ADDRESS+0xce8380c>
  a8:	13490b3b 	beq	$26,$9,2d98 <_ZL19BUFFER_TAIL_ADDRESS+0x2d98>
  ac:	06120111 	bltzall	$16,4f4 <_ZL19BUFFER_TAIL_ADDRESS+0x4f4>
  b0:	42971840 	c0	0x971840
  b4:	00000019 	multu	$0,$0

Disassembly of section .debug_aranges:

00000000 <.debug_aranges>:
   0:	00000034 	teq	$0,$0
   4:	00000002 	srl	$0,$0,0x0
   8:	00040000 	sll	$0,$4,0x0
	...
  14:	00000028 	0x28
  18:	00000000 	sll	$0,$0,0x0
  1c:	00000028 	0x28
  20:	00000000 	sll	$0,$0,0x0
  24:	000001dc 	0x1dc
  28:	00000000 	sll	$0,$0,0x0
  2c:	000000f0 	tge	$0,$0,0x3
	...

Disassembly of section .debug_ranges:

00000000 <.debug_ranges>:
   0:	00000000 	sll	$0,$0,0x0
   4:	00000028 	0x28
   8:	00000000 	sll	$0,$0,0x0
   c:	00000028 	0x28
  10:	00000000 	sll	$0,$0,0x0
  14:	000001dc 	0x1dc
  18:	00000000 	sll	$0,$0,0x0
  1c:	000000f0 	tge	$0,$0,0x3
	...

Disassembly of section .debug_line:

00000000 <.debug_line>:
   0:	000000e9 	0xe9
   4:	00760002 	0x760002
   8:	01010000 	0x1010000
   c:	000d0efb 	0xd0efb
  10:	01010101 	0x1010101
  14:	01000000 	0x1000000
  18:	2f010000 	sltiu	$1,$24,0
  1c:	2f727375 	sltiu	$18,$27,29557
  20:	2f62696c 	sltiu	$2,$27,26988
  24:	2d636367 	sltiu	$3,$11,25447
  28:	736f7263 	0x736f7263
  2c:	696d2f73 	0x696d2f73
  30:	6c2d7370 	0x6c2d7370
  34:	78756e69 	0x78756e69
  38:	756e672d 	jalx	5b99cb4 <_ZL19BUFFER_TAIL_ADDRESS+0x5b99cb4>
  3c:	692f372f 	0x692f372f
  40:	756c636e 	jalx	5b18db8 <_ZL19BUFFER_TAIL_ADDRESS+0x5b18db8>
  44:	00006564 	0x6564
  48:	685f6174 	0x685f6174
  4c:	632e6c61 	0x632e6c61
  50:	00007070 	tge	$0,$0,0x1c1
  54:	74730000 	jalx	1cc0000 <_ZL19BUFFER_TAIL_ADDRESS+0x1cc0000>
  58:	746e6964 	jalx	1b9a590 <_ZL19BUFFER_TAIL_ADDRESS+0x1b9a590>
  5c:	6363672d 	0x6363672d
  60:	0100682e 	0x100682e
  64:	74750000 	jalx	1d40000 <_ZL19BUFFER_TAIL_ADDRESS+0x1d40000>
  68:	74696c69 	jalx	1a5b1a4 <_ZL19BUFFER_TAIL_ADDRESS+0x1a5b1a4>
  6c:	00682e79 	0x682e79
  70:	74000000 	jalx	0 <.debug_line>
  74:	61685f61 	0x61685f61
  78:	00682e6c 	0x682e6c
  7c:	00000000 	sll	$0,$0,0x0
  80:	00020500 	sll	$0,$2,0x14
  84:	03000000 	0x3000000
  88:	4bf30109 	c2	0x1f30109
  8c:	01001402 	0x1001402
  90:	02050001 	movt	$0,$16,$fcc1
  94:	00000000 	sll	$0,$0,0x0
  98:	bb010e03 	swr	$1,3587($24)
  9c:	00140283 	sra	$0,$20,0xa
  a0:	05000101 	bltz	$8,4a8 <_ZL19BUFFER_TAIL_ADDRESS+0x4a8>
  a4:	00000002 	srl	$0,$0,0x0
  a8:	01150300 	0x1150300
  ac:	bb142802 	swr	$20,10242($24)
  b0:	08e508f4 	j	39423d0 <_ZL19BUFFER_TAIL_ADDRESS+0x39423d0>
  b4:	137402e7 	beq	$27,$20,c54 <_ZL19BUFFER_TAIL_ADDRESS+0xc54>
  b8:	85e208bb 	lh	$2,2235($15)
  bc:	1524024c 	bne	$9,$4,9f0 <_ZL19BUFFER_TAIL_ADDRESS+0x9f0>
  c0:	f33d08f3 	0xf33d08f3
  c4:	75083d08 	jalx	420f420 <_ZL19BUFFER_TAIL_ADDRESS+0x420f420>
  c8:	00200283 	0x200283
  cc:	05000101 	bltz	$8,4d4 <_ZL19BUFFER_TAIL_ADDRESS+0x4d4>
  d0:	00000002 	srl	$0,$0,0x0
  d4:	01300300 	0x1300300
  d8:	e508ad08 	swc1	$f8,-21240($8)
  dc:	08132402 	j	4c9008 <_ZL19BUFFER_TAIL_ADDRESS+0x4c9008>
  e0:	bdbbbbe5 	cache	0x1b,-17435($13)
  e4:	f34ce508 	0xf34ce508
  e8:	01001802 	0x1001802
  ec:	Address 0x00000000000000ec is out of bounds.


Disassembly of section .debug_str:

00000000 <.debug_str>:
   0:	66667542 	0x66667542
   4:	6e497265 	0x6e497265
   8:	50786564 	beql	$3,$24,1959c <_ZL19BUFFER_TAIL_ADDRESS+0x1959c>
   c:	69007274 	0x69007274
  10:	3436746e 	ori	$22,$1,0x746e
  14:	6d00745f 	0x6d00745f
  18:	616d5f79 	0x616d5f79
  1c:	65530063 	0x65530063
  20:	7453646e 	jalx	14d91b8 <_ZL19BUFFER_TAIL_ADDRESS+0x14d91b8>
  24:	50657461 	beql	$3,$5,1d1ac <_ZL19BUFFER_TAIL_ADDRESS+0x1d1ac>
  28:	73007274 	0x73007274
  2c:	5f657a69 	0x5f657a69
  30:	65470074 	0x65470074
  34:	63695474 	0x63695474
  38:	7400736b 	jalx	1cdac <_ZL19BUFFER_TAIL_ADDRESS+0x1cdac>
  3c:	61685f61 	0x61685f61
  40:	70632e6c 	0x70632e6c
  44:	4e470070 	c3	0x470070
  48:	2b432055 	slti	$3,$26,8277
  4c:	2031312b 	addi	$17,$1,12587
  50:	2e342e37 	sltiu	$20,$17,11831
  54:	6d2d2030 	0x6d2d2030
  58:	2d206c65 	sltiu	$0,$9,27749
  5c:	6e69736d 	0x6e69736d
  60:	2d656c67 	sltiu	$5,$11,27751
  64:	616f6c66 	0x616f6c66
  68:	6d2d2074 	0x6d2d2074
  6c:	746f6778 	jalx	1bd9de0 <_ZL19BUFFER_TAIL_ADDRESS+0x1bd9de0>
  70:	6e6d2d20 	0x6e6d2d20
  74:	62612d6f 	0x62612d6f
  78:	6c616369 	0x6c616369
  7c:	2d20736c 	sltiu	$0,$9,29548
  80:	7261686d 	0x7261686d
  84:	6c662d64 	0x6c662d64
  88:	2074616f 	addi	$20,$3,24943
  8c:	70696d2d 	0x70696d2d
  90:	20323373 	addi	$18,$1,13171
  94:	6c6c6d2d 	0x6c6c6d2d
  98:	2d206373 	sltiu	$0,$9,25459
  9c:	2d6f6e6d 	sltiu	$15,$11,28269
  a0:	3163786c 	andi	$3,$11,0x786c
  a4:	6378732d 	0x6378732d
  a8:	6d2d2031 	0x6d2d2031
  ac:	732d6f6e 	0x732d6f6e
  b0:	65726168 	0x65726168
  b4:	6d2d2064 	0x6d2d2064
  b8:	3d696261 	0x3d696261
  bc:	2d203233 	sltiu	$0,$9,12851
  c0:	732d2067 	0x732d2067
  c4:	633d6474 	0x633d6474
  c8:	31312b2b 	andi	$17,$9,0x2b2b
  cc:	66662d20 	0x66662d20
  d0:	74636e75 	jalx	18db9d4 <_ZL19BUFFER_TAIL_ADDRESS+0x18db9d4>
  d4:	2d6e6f69 	sltiu	$14,$11,28521
  d8:	74636573 	jalx	18d95cc <_ZL19BUFFER_TAIL_ADDRESS+0x18d95cc>
  dc:	736e6f69 	0x736e6f69
  e0:	64662d20 	0x64662d20
  e4:	2d617461 	sltiu	$1,$11,29793
  e8:	74636573 	jalx	18d95cc <_ZL19BUFFER_TAIL_ADDRESS+0x18d95cc>
  ec:	736e6f69 	0x736e6f69
  f0:	66662d20 	0x66662d20
  f4:	73656572 	0x73656572
  f8:	646e6174 	0x646e6174
  fc:	20676e69 	addi	$7,$3,28265
 100:	6f6e662d 	0x6f6e662d
 104:	6975622d 	0x6975622d
 108:	6e69746c 	0x6e69746c
 10c:	6e662d20 	0x6e662d20
 110:	49502d6f 	0x49502d6f
 114:	69750045 	0x69750045
 118:	3436746e 	ori	$22,$1,0x746e
 11c:	6900745f 	0x6900745f
 120:	6e695f66 	0x6e695f66
 124:	00786564 	0x786564
 128:	69736e75 	0x69736e75
 12c:	64656e67 	0x64656e67
 130:	61686320 	0x61686320
 134:	66690072 	0x66690072
 138:	6464615f 	0x6464615f
 13c:	6c007372 	0x6c007372
 140:	20676e6f 	addi	$7,$3,28271
 144:	69736e75 	0x69736e75
 148:	64656e67 	0x64656e67
 14c:	746e6920 	jalx	1b9a480 <_ZL19BUFFER_TAIL_ADDRESS+0x1b9a480>
 150:	63727300 	0x63727300
 154:	63616d5f 	0x63616d5f
 158:	6f687300 	0x6f687300
 15c:	75207472 	jalx	481d1c8 <_ZL19BUFFER_TAIL_ADDRESS+0x481d1c8>
 160:	6769736e 	0x6769736e
 164:	2064656e 	addi	$4,$3,25966
 168:	00746e69 	0x746e69
 16c:	74696e49 	jalx	1a5b924 <_ZL19BUFFER_TAIL_ADDRESS+0x1a5b924>
 170:	6e655300 	0x6e655300
 174:	50504964 	beql	$2,$16,12708 <_ZL19BUFFER_TAIL_ADDRESS+0x12708>
 178:	656b6361 	0x656b6361
 17c:	79730074 	0x79730074
 180:	6e695f73 	0x6e695f73
 184:	00786564 	0x786564
 188:	746e6d2f 	jalx	1b9b4bc <_ZL19BUFFER_TAIL_ADDRESS+0x1b9b4bc>
 18c:	552f632f 	bnel	$9,$15,18e4c <_ZL19BUFFER_TAIL_ADDRESS+0x18e4c>
 190:	73726573 	0x73726573
 194:	6d616e2f 	0x6d616e2f
 198:	442f7361 	0x442f7361
 19c:	6d75636f 	0x6d75636f
 1a0:	73746e65 	0x73746e65
 1a4:	756f432f 	jalx	5bd0cbc <_ZL19BUFFER_TAIL_ADDRESS+0x5bd0cbc>
 1a8:	2f657372 	sltiu	$5,$27,29554
 1ac:	39313032 	xori	$17,$9,0x3032
 1b0:	75747541 	jalx	5d1d504 <_ZL19BUFFER_TAIL_ADDRESS+0x5d1d504>
 1b4:	4f2f6e6d 	c3	0x12f6e6d
 1b8:	6e616772 	0x6e616772
 1bc:	74617a69 	jalx	185e9a4 <_ZL19BUFFER_TAIL_ADDRESS+0x185e9a4>
 1c0:	4e6e6f69 	c3	0x6e6f69
 1c4:	6f777465 	0x6f777465
 1c8:	78456b72 	0x78456b72
 1cc:	69726570 	0x69726570
 1d0:	746e656d 	jalx	1b995b4 <_ZL19BUFFER_TAIL_ADDRESS+0x1b995b4>
 1d4:	646f632f 	0x646f632f
 1d8:	72673931 	0x72673931
 1dc:	742f3270 	jalx	bcc9c0 <_ZL19BUFFER_TAIL_ADDRESS+0xbcc9c0>
 1e0:	706e6968 	0x706e6968
 1e4:	745f6461 	jalx	17d9184 <_ZL19BUFFER_TAIL_ADDRESS+0x17d9184>
 1e8:	732e706f 	0x732e706f
 1ec:	2f736372 	sltiu	$19,$27,25458
 1f0:	5f6d6973 	0x5f6d6973
 1f4:	656e2f31 	0x656e2f31
 1f8:	616d2f77 	0x616d2f77
 1fc:	6e696863 	0x6e696863
 200:	6f632d65 	0x6f632d65
 204:	672d6564 	0x672d6564
 208:	72656e65 	0x72656e65
 20c:	726f7461 	0x726f7461
 210:	46554200 	c1	0x554200
 214:	5f524546 	0x5f524546
 218:	45534142 	0x45534142
 21c:	4444415f 	0x4444415f
 220:	53534552 	beql	$26,$19,1176c <_ZL19BUFFER_TAIL_ADDRESS+0x1176c>
 224:	736e7500 	0x736e7500
 228:	656e6769 	0x656e6769
 22c:	6e692064 	0x6e692064
 230:	73640074 	0x73640074
 234:	616d5f74 	0x616d5f74
 238:	6f6c0063 	0x6f6c0063
 23c:	6c20676e 	0x6c20676e
 240:	20676e6f 	addi	$7,$3,28271
 244:	69736e75 	0x69736e75
 248:	64656e67 	0x64656e67
 24c:	746e6920 	jalx	1b9a480 <_ZL19BUFFER_TAIL_ADDRESS+0x1b9a480>
 250:	6e697500 	0x6e697500
 254:	745f3874 	jalx	17ce1d0 <_ZL19BUFFER_TAIL_ADDRESS+0x17ce1d0>
 258:	46554200 	c1	0x554200
 25c:	5f524546 	0x5f524546
 260:	4c494154 	0x4c494154
 264:	4444415f 	0x4444415f
 268:	53534552 	beql	$26,$19,117b4 <_ZL19BUFFER_TAIL_ADDRESS+0x117b4>
 26c:	6e6f6c00 	0x6e6f6c00
 270:	6f6c2067 	0x6f6c2067
 274:	6920676e 	0x6920676e
 278:	7400746e 	jalx	1d1b8 <_ZL19BUFFER_TAIL_ADDRESS+0x1d1b8>
 27c:	6f656d69 	0x6f656d69
 280:	53007475 	beqzl	$24,1d458 <_ZL19BUFFER_TAIL_ADDRESS+0x1d458>
 284:	5f444e45 	0x5f444e45
 288:	544e4f43 	bnel	$2,$14,13f98 <_ZL19BUFFER_TAIL_ADDRESS+0x13f98>
 28c:	5f4c4f52 	0x5f4c4f52
 290:	52444441 	beql	$18,$4,11398 <_ZL19BUFFER_TAIL_ADDRESS+0x11398>
 294:	00535345 	0x535345
 298:	65636552 	0x65636552
 29c:	49657669 	0x49657669
 2a0:	63615050 	0x63615050
 2a4:	0074656b 	0x74656b
 2a8:	726f6873 	0x726f6873
 2ac:	6e692074 	0x6e692074
 2b0:	74730074 	jalx	1cc01d0 <_ZL19BUFFER_TAIL_ADDRESS+0x1cc01d0>
 2b4:	54747261 	bnel	$3,$20,1cc3c <_ZL19BUFFER_TAIL_ADDRESS+0x1cc3c>
 2b8:	00656d69 	0x656d69
 2bc:	66667562 	0x66667562
 2c0:	75007265 	jalx	401c994 <_ZL19BUFFER_TAIL_ADDRESS+0x401c994>
 2c4:	31746e69 	andi	$20,$11,0x6e69
 2c8:	00745f36 	tne	$3,$20,0x17c
 2cc:	746e6975 	jalx	1b9a5d4 <_ZL19BUFFER_TAIL_ADDRESS+0x1b9a5d4>
 2d0:	745f3233 	jalx	17cc8cc <_ZL19BUFFER_TAIL_ADDRESS+0x17cc8cc>
 2d4:	5f6e6900 	0x5f6e6900
 2d8:	72646461 	0x72646461
 2dc:	5300745f 	beqzl	$24,1d45c <_ZL19BUFFER_TAIL_ADDRESS+0x1d45c>
 2e0:	5f444e45 	0x5f444e45
 2e4:	54415453 	bnel	$2,$1,15434 <_ZL19BUFFER_TAIL_ADDRESS+0x15434>
 2e8:	44415f45 	0x44415f45
 2ec:	53455244 	beql	$26,$5,14c00 <_ZL19BUFFER_TAIL_ADDRESS+0x14c00>
 2f0:	69730053 	0x69730053
 2f4:	64656e67 	0x64656e67
 2f8:	61686320 	0x61686320
 2fc:	4f520072 	c3	0x1520072
 300:	52455455 	beql	$18,$5,15458 <_ZL19BUFFER_TAIL_ADDRESS+0x15458>
 304:	4241545f 	c0	0x41545f
 308:	425f454c 	c0	0x5f454c
 30c:	00455341 	0x455341
 310:	676e656c 	0x676e656c
 314:	Address 0x0000000000000314 is out of bounds.


Disassembly of section .comment:

00000000 <.comment>:
   0:	43434700 	c0	0x1434700
   4:	5528203a 	bnel	$9,$8,80f0 <_ZL19BUFFER_TAIL_ADDRESS+0x80f0>
   8:	746e7562 	jalx	1b9d588 <_ZL19BUFFER_TAIL_ADDRESS+0x1b9d588>
   c:	2e372075 	sltiu	$23,$17,8309
  10:	2d302e34 	sltiu	$16,$9,11828
  14:	75627531 	jalx	589d4c4 <_ZL19BUFFER_TAIL_ADDRESS+0x589d4c4>
  18:	3175746e 	andi	$21,$11,0x746e
  1c:	2e38317e 	sltiu	$24,$17,12670
  20:	312e3430 	andi	$14,$9,0x3430
  24:	2e372029 	sltiu	$23,$17,8233
  28:	00302e34 	teq	$1,$16,0xb8

Disassembly of section .eh_frame:

00000000 <.eh_frame>:
   0:	00000010 	mfhi	$0
   4:	00000000 	sll	$0,$0,0x0
   8:	00527a01 	0x527a01
   c:	011f7c01 	0x11f7c01
  10:	001d0d0b 	0x1d0d0b
  14:	00000020 	add	$0,$0,$0
  18:	00000018 	mult	$0,$0
  1c:	00000000 	sll	$0,$0,0x0
  20:	00000028 	0x28
  24:	080e4400 	j	391000 <_ZL19BUFFER_TAIL_ADDRESS+0x391000>
  28:	44019e44 	0x44019e44
  2c:	0d4c1e0d 	jal	5307834 <_ZL19BUFFER_TAIL_ADDRESS+0x5307834>
  30:	0ede481d 	jal	b792074 <_ZL19BUFFER_TAIL_ADDRESS+0xb792074>
  34:	00000000 	sll	$0,$0,0x0
  38:	00000020 	add	$0,$0,$0
  3c:	0000003c 	0x3c
  40:	00000000 	sll	$0,$0,0x0
  44:	00000028 	0x28
  48:	080e4400 	j	391000 <_ZL19BUFFER_TAIL_ADDRESS+0x391000>
  4c:	44019e44 	0x44019e44
  50:	0d4c1e0d 	jal	5307834 <_ZL19BUFFER_TAIL_ADDRESS+0x5307834>
  54:	0ede481d 	jal	b792074 <_ZL19BUFFER_TAIL_ADDRESS+0xb792074>
  58:	00000000 	sll	$0,$0,0x0
  5c:	00000028 	0x28
  60:	00000060 	0x60
  64:	00000000 	sll	$0,$0,0x0
  68:	000001dc 	0x1dc
  6c:	300e4400 	andi	$14,$0,0x4400
  70:	9e019f50 	0x9e019f50
  74:	90039102 	lbu	$3,-28414($0)
  78:	1e0d4404 	0x1e0d4404
  7c:	0d01a803 	jal	406a00c <_ZL19BUFFER_TAIL_ADDRESS+0x406a00c>
  80:	d1d0541d 	0xd1d0541d
  84:	000edfde 	0xedfde
  88:	00000020 	add	$0,$0,$0
  8c:	0000008c 	syscall	0x2
  90:	00000000 	sll	$0,$0,0x0
  94:	000000f0 	tge	$0,$0,0x3
  98:	100e4400 	beq	$0,$14,1109c <_ZL19BUFFER_TAIL_ADDRESS+0x1109c>
  9c:	44019e44 	0x44019e44
  a0:	d4021e0d 	ldc1	$f2,7693($0)
  a4:	de481d0d 	ldc3	$8,7437($18)
  a8:	0000000e 	0xe

Disassembly of section .gnu.attributes:

00000000 <.gnu.attributes>:
   0:	00000f41 	0xf41
   4:	756e6700 	jalx	5b99c00 <_ZL19BUFFER_TAIL_ADDRESS+0x5b99c00>
   8:	00070100 	sll	$0,$7,0x4
   c:	02040000 	0x2040000
