
utility.cpp.o:     file format elf32-tradlittlemips


Disassembly of section .reginfo:

00000000 <.reginfo>:
   0:	e000007c 	sc	$0,124($0)
	...

Disassembly of section .MIPS.abiflags:

00000000 <.MIPS.abiflags>:
   0:	01200000 	0x1200000
   4:	02000101 	0x2000101
	...
  10:	00000001 	movf	$0,$0,$fcc0
  14:	00000000 	sll	$0,$0,0x0

Disassembly of section .pdr:

00000000 <.pdr>:
   0:	00000000 	sll	$0,$0,0x0
   4:	40000000 	mfc0	$0,c0_index
   8:	fffffffc 	sdc3	$31,-4($31)
	...
  14:	00000008 	jr	$0
  18:	0000001e 	0x1e
  1c:	0000001f 	0x1f
  20:	00000000 	sll	$0,$0,0x0
  24:	40000000 	mfc0	$0,c0_index
  28:	fffffffc 	sdc3	$31,-4($31)
	...
  34:	00000008 	jr	$0
  38:	0000001e 	0x1e
  3c:	0000001f 	0x1f
  40:	00000000 	sll	$0,$0,0x0
  44:	40000000 	mfc0	$0,c0_index
  48:	fffffffc 	sdc3	$31,-4($31)
	...
  54:	00000008 	jr	$0
  58:	0000001e 	0x1e
  5c:	0000001f 	0x1f
  60:	00000000 	sll	$0,$0,0x0
  64:	c0000000 	ll	$0,0($0)
  68:	fffffffc 	sdc3	$31,-4($31)
	...
  74:	00000018 	mult	$0,$0
  78:	0000001e 	0x1e
  7c:	0000001f 	0x1f
  80:	00000000 	sll	$0,$0,0x0
  84:	c0000000 	ll	$0,0($0)
  88:	fffffffc 	sdc3	$31,-4($31)
	...
  94:	00000020 	add	$0,$0,$0
  98:	0000001e 	0x1e
  9c:	0000001f 	0x1f
  a0:	00000000 	sll	$0,$0,0x0
  a4:	c0000000 	ll	$0,0($0)
  a8:	fffffffc 	sdc3	$31,-4($31)
	...
  b4:	00000018 	mult	$0,$0
  b8:	0000001e 	0x1e
  bc:	0000001f 	0x1f
  c0:	00000000 	sll	$0,$0,0x0
  c4:	c0000000 	ll	$0,0($0)
  c8:	fffffffc 	sdc3	$31,-4($31)
	...
  d4:	00000028 	0x28
  d8:	0000001e 	0x1e
  dc:	0000001f 	0x1f
  e0:	00000000 	sll	$0,$0,0x0
  e4:	40000000 	mfc0	$0,c0_index
  e8:	fffffffc 	sdc3	$31,-4($31)
	...
  f4:	00000008 	jr	$0
  f8:	0000001e 	0x1e
  fc:	0000001f 	0x1f
 100:	00000000 	sll	$0,$0,0x0
 104:	40000000 	mfc0	$0,c0_index
 108:	fffffffc 	sdc3	$31,-4($31)
	...
 114:	00000008 	jr	$0
 118:	0000001e 	0x1e
 11c:	0000001f 	0x1f
 120:	00000000 	sll	$0,$0,0x0
 124:	40000000 	mfc0	$0,c0_index
 128:	fffffffc 	sdc3	$31,-4($31)
	...
 134:	00000008 	jr	$0
 138:	0000001e 	0x1e
 13c:	0000001f 	0x1f
 140:	00000000 	sll	$0,$0,0x0
 144:	40000000 	mfc0	$0,c0_index
 148:	fffffffc 	sdc3	$31,-4($31)
	...
 154:	00000008 	jr	$0
 158:	0000001e 	0x1e
 15c:	0000001f 	0x1f
 160:	00000000 	sll	$0,$0,0x0
 164:	40000000 	mfc0	$0,c0_index
 168:	fffffffc 	sdc3	$31,-4($31)
	...
 174:	00000008 	jr	$0
 178:	0000001e 	0x1e
 17c:	0000001f 	0x1f
 180:	00000000 	sll	$0,$0,0x0
 184:	40000000 	mfc0	$0,c0_index
 188:	fffffffc 	sdc3	$31,-4($31)
	...
 194:	00000008 	jr	$0
 198:	0000001e 	0x1e
 19c:	0000001f 	0x1f
 1a0:	00000000 	sll	$0,$0,0x0
 1a4:	40000000 	mfc0	$0,c0_index
 1a8:	fffffffc 	sdc3	$31,-4($31)
	...
 1b4:	00000010 	mfhi	$0
 1b8:	0000001e 	0x1e
 1bc:	0000001f 	0x1f
 1c0:	00000000 	sll	$0,$0,0x0
 1c4:	40000000 	mfc0	$0,c0_index
 1c8:	fffffffc 	sdc3	$31,-4($31)
	...
 1d4:	00000010 	mfhi	$0
 1d8:	0000001e 	0x1e
 1dc:	0000001f 	0x1f
 1e0:	00000000 	sll	$0,$0,0x0
 1e4:	40000000 	mfc0	$0,c0_index
 1e8:	fffffffc 	sdc3	$31,-4($31)
	...
 1f4:	00000008 	jr	$0
 1f8:	0000001e 	0x1e
 1fc:	0000001f 	0x1f

Disassembly of section .text._Z7getDataPKhm:

00000000 <_Z7getDataPKhm>:
   0:	27bdfff8 	addiu	$29,$29,-8
   4:	afbe0004 	sw	$30,4($29)
   8:	03a0f025 	or	$30,$29,$0
   c:	afc40008 	sw	$4,8($30)
  10:	afc5000c 	sw	$5,12($30)
  14:	8fc30008 	lw	$3,8($30)
  18:	8fc2000c 	lw	$2,12($30)
  1c:	00621021 	addu	$2,$3,$2
  20:	90420000 	lbu	$2,0($2)
  24:	00021200 	sll	$2,$2,0x8
  28:	8fc3000c 	lw	$3,12($30)
  2c:	24630001 	addiu	$3,$3,1
  30:	8fc40008 	lw	$4,8($30)
  34:	00831821 	addu	$3,$4,$3
  38:	90630000 	lbu	$3,0($3)
  3c:	00431025 	or	$2,$2,$3
  40:	03c0e825 	or	$29,$30,$0
  44:	8fbe0004 	lw	$30,4($29)
  48:	27bd0008 	addiu	$29,$29,8
  4c:	03e00008 	jr	$31
  50:	00000000 	sll	$0,$0,0x0

Disassembly of section .text._Z9writeDataPhmi:

00000000 <_Z9writeDataPhmi>:
   0:	27bdfff8 	addiu	$29,$29,-8
   4:	afbe0004 	sw	$30,4($29)
   8:	03a0f025 	or	$30,$29,$0
   c:	afc40008 	sw	$4,8($30)
  10:	afc5000c 	sw	$5,12($30)
  14:	afc60010 	sw	$6,16($30)
  18:	8fc20010 	lw	$2,16($30)
  1c:	00022203 	sra	$4,$2,0x8
  20:	8fc30008 	lw	$3,8($30)
  24:	8fc2000c 	lw	$2,12($30)
  28:	00621021 	addu	$2,$3,$2
  2c:	308300ff 	andi	$3,$4,0xff
  30:	a0430000 	sb	$3,0($2)
  34:	8fc2000c 	lw	$2,12($30)
  38:	24420001 	addiu	$2,$2,1
  3c:	8fc30008 	lw	$3,8($30)
  40:	00621021 	addu	$2,$3,$2
  44:	8fc30010 	lw	$3,16($30)
  48:	306300ff 	andi	$3,$3,0xff
  4c:	a0430000 	sb	$3,0($2)
  50:	00000000 	sll	$0,$0,0x0
  54:	03c0e825 	or	$29,$30,$0
  58:	8fbe0004 	lw	$30,4($29)
  5c:	27bd0008 	addiu	$29,$29,8
  60:	03e00008 	jr	$31
  64:	00000000 	sll	$0,$0,0x0

Disassembly of section .text._Z7reverseh:

00000000 <_Z7reverseh>:
   0:	27bdfff8 	addiu	$29,$29,-8
   4:	afbe0004 	sw	$30,4($29)
   8:	03a0f025 	or	$30,$29,$0
   c:	00801025 	or	$2,$4,$0
  10:	a3c20008 	sb	$2,8($30)
  14:	93c20008 	lbu	$2,8($30)
  18:	00021102 	srl	$2,$2,0x4
  1c:	304200ff 	andi	$2,$2,0xff
  20:	00021e00 	sll	$3,$2,0x18
  24:	00031e03 	sra	$3,$3,0x18
  28:	93c20008 	lbu	$2,8($30)
  2c:	00021100 	sll	$2,$2,0x4
  30:	00021600 	sll	$2,$2,0x18
  34:	00021603 	sra	$2,$2,0x18
  38:	00621025 	or	$2,$3,$2
  3c:	00021600 	sll	$2,$2,0x18
  40:	00021603 	sra	$2,$2,0x18
  44:	a3c20008 	sb	$2,8($30)
  48:	93c20008 	lbu	$2,8($30)
  4c:	00021083 	sra	$2,$2,0x2
  50:	00021600 	sll	$2,$2,0x18
  54:	00021603 	sra	$2,$2,0x18
  58:	30420033 	andi	$2,$2,0x33
  5c:	00021e00 	sll	$3,$2,0x18
  60:	00031e03 	sra	$3,$3,0x18
  64:	93c20008 	lbu	$2,8($30)
  68:	00021080 	sll	$2,$2,0x2
  6c:	00022600 	sll	$4,$2,0x18
  70:	00042603 	sra	$4,$4,0x18
  74:	2402ffcc 	addiu	$2,$0,-52
  78:	00821024 	and	$2,$4,$2
  7c:	00021600 	sll	$2,$2,0x18
  80:	00021603 	sra	$2,$2,0x18
  84:	00621025 	or	$2,$3,$2
  88:	00021600 	sll	$2,$2,0x18
  8c:	00021603 	sra	$2,$2,0x18
  90:	a3c20008 	sb	$2,8($30)
  94:	93c20008 	lbu	$2,8($30)
  98:	00021043 	sra	$2,$2,0x1
  9c:	00021600 	sll	$2,$2,0x18
  a0:	00021603 	sra	$2,$2,0x18
  a4:	30420055 	andi	$2,$2,0x55
  a8:	00021e00 	sll	$3,$2,0x18
  ac:	00031e03 	sra	$3,$3,0x18
  b0:	93c20008 	lbu	$2,8($30)
  b4:	00021040 	sll	$2,$2,0x1
  b8:	00022600 	sll	$4,$2,0x18
  bc:	00042603 	sra	$4,$4,0x18
  c0:	2402ffaa 	addiu	$2,$0,-86
  c4:	00821024 	and	$2,$4,$2
  c8:	00021600 	sll	$2,$2,0x18
  cc:	00021603 	sra	$2,$2,0x18
  d0:	00621025 	or	$2,$3,$2
  d4:	00021600 	sll	$2,$2,0x18
  d8:	00021603 	sra	$2,$2,0x18
  dc:	a3c20008 	sb	$2,8($30)
  e0:	93c20008 	lbu	$2,8($30)
  e4:	03c0e825 	or	$29,$30,$0
  e8:	8fbe0004 	lw	$30,4($29)
  ec:	27bd0008 	addiu	$29,$29,8
  f0:	03e00008 	jr	$31
  f4:	00000000 	sll	$0,$0,0x0

Disassembly of section .text._Z3outji:

00000000 <_Z3outji>:
   0:	27bdffe8 	addiu	$29,$29,-24
   4:	afbf0014 	sw	$31,20($29)
   8:	afbe0010 	sw	$30,16($29)
   c:	03a0f025 	or	$30,$29,$0
  10:	afc40018 	sw	$4,24($30)
  14:	afc5001c 	sw	$5,28($30)
  18:	8fc2001c 	lw	$2,28($30)
  1c:	2443ffff 	addiu	$3,$2,-1
  20:	afc3001c 	sw	$3,28($30)
  24:	0002102b 	sltu	$2,$0,$2
  28:	304200ff 	andi	$2,$2,0xff
  2c:	10400010 	beqz	$2,70 <_Z3outji+0x70>
  30:	00000000 	sll	$0,$0,0x0
  34:	8fc30018 	lw	$3,24($30)
  38:	8fc2001c 	lw	$2,28($30)
  3c:	00431006 	srlv	$2,$3,$2
  40:	304200ff 	andi	$2,$2,0xff
  44:	30420001 	andi	$2,$2,0x1
  48:	304200ff 	andi	$2,$2,0xff
  4c:	38420030 	xori	$2,$2,0x30
  50:	304200ff 	andi	$2,$2,0xff
  54:	00021600 	sll	$2,$2,0x18
  58:	00021603 	sra	$2,$2,0x18
  5c:	00402025 	or	$4,$2,$0
  60:	0c000000 	jal	0 <_Z3outji>
  64:	00000000 	sll	$0,$0,0x0
  68:	1000ffeb 	beqz	$0,18 <_Z3outji+0x18>
  6c:	00000000 	sll	$0,$0,0x0
  70:	00000000 	sll	$0,$0,0x0
  74:	03c0e825 	or	$29,$30,$0
  78:	8fbf0014 	lw	$31,20($29)
  7c:	8fbe0010 	lw	$30,16($29)
  80:	27bd0018 	addiu	$29,$29,24
  84:	03e00008 	jr	$31
  88:	00000000 	sll	$0,$0,0x0

Disassembly of section .text._Z6outputj:

00000000 <_Z6outputj>:
   0:	27bdffe0 	addiu	$29,$29,-32
   4:	afbf001c 	sw	$31,28($29)
   8:	afbe0018 	sw	$30,24($29)
   c:	03a0f025 	or	$30,$29,$0
  10:	afc40020 	sw	$4,32($30)
  14:	24020020 	addiu	$2,$0,32
  18:	afc20010 	sw	$2,16($30)
  1c:	8fc20010 	lw	$2,16($30)
  20:	2443ffff 	addiu	$3,$2,-1
  24:	afc30010 	sw	$3,16($30)
  28:	0002102b 	sltu	$2,$0,$2
  2c:	304200ff 	andi	$2,$2,0xff
  30:	10400010 	beqz	$2,74 <_Z6outputj+0x74>
  34:	00000000 	sll	$0,$0,0x0
  38:	8fc30020 	lw	$3,32($30)
  3c:	8fc20010 	lw	$2,16($30)
  40:	00431006 	srlv	$2,$3,$2
  44:	304200ff 	andi	$2,$2,0xff
  48:	30420001 	andi	$2,$2,0x1
  4c:	304200ff 	andi	$2,$2,0xff
  50:	38420030 	xori	$2,$2,0x30
  54:	304200ff 	andi	$2,$2,0xff
  58:	00021600 	sll	$2,$2,0x18
  5c:	00021603 	sra	$2,$2,0x18
  60:	00402025 	or	$4,$2,$0
  64:	0c000000 	jal	0 <_Z6outputj>
  68:	00000000 	sll	$0,$0,0x0
  6c:	1000ffeb 	beqz	$0,1c <_Z6outputj+0x1c>
  70:	00000000 	sll	$0,$0,0x0
  74:	00000000 	sll	$0,$0,0x0
  78:	03c0e825 	or	$29,$30,$0
  7c:	8fbf001c 	lw	$31,28($29)
  80:	8fbe0018 	lw	$30,24($29)
  84:	27bd0020 	addiu	$29,$29,32
  88:	03e00008 	jr	$31
  8c:	00000000 	sll	$0,$0,0x0

Disassembly of section .text._Z4calcji:

00000000 <_Z4calcji>:
   0:	27bdffe8 	addiu	$29,$29,-24
   4:	afbf0014 	sw	$31,20($29)
   8:	afbe0010 	sw	$30,16($29)
   c:	03a0f025 	or	$30,$29,$0
  10:	afc40018 	sw	$4,24($30)
  14:	afc5001c 	sw	$5,28($30)
  18:	8fc40018 	lw	$4,24($30)
  1c:	0c000000 	jal	0 <_Z4calcji>
  20:	00000000 	sll	$0,$0,0x0
  24:	00402025 	or	$4,$2,$0
  28:	24030020 	addiu	$3,$0,32
  2c:	8fc2001c 	lw	$2,28($30)
  30:	00621023 	subu	$2,$3,$2
  34:	00441806 	srlv	$3,$4,$2
  38:	24040020 	addiu	$4,$0,32
  3c:	8fc2001c 	lw	$2,28($30)
  40:	00821023 	subu	$2,$4,$2
  44:	00431004 	sllv	$2,$3,$2
  48:	00402025 	or	$4,$2,$0
  4c:	0c000000 	jal	0 <_Z4calcji>
  50:	00000000 	sll	$0,$0,0x0
  54:	03c0e825 	or	$29,$30,$0
  58:	8fbf0014 	lw	$31,20($29)
  5c:	8fbe0010 	lw	$30,16($29)
  60:	27bd0018 	addiu	$29,$29,24
  64:	03e00008 	jr	$31
  68:	00000000 	sll	$0,$0,0x0

Disassembly of section .text._Z10IPChecksumPh:

00000000 <_Z10IPChecksumPh>:
   0:	27bdffd8 	addiu	$29,$29,-40
   4:	afbf0024 	sw	$31,36($29)
   8:	afbe0020 	sw	$30,32($29)
   c:	03a0f025 	or	$30,$29,$0
  10:	afc40028 	sw	$4,40($30)
  14:	8fc20028 	lw	$2,40($30)
  18:	90420000 	lbu	$2,0($2)
  1c:	00021080 	sll	$2,$2,0x2
  20:	3042003c 	andi	$2,$2,0x3c
  24:	afc20018 	sw	$2,24($30)
  28:	afc00010 	sw	$0,16($30)
  2c:	afc00014 	sw	$0,20($30)
  30:	8fc30014 	lw	$3,20($30)
  34:	8fc20018 	lw	$2,24($30)
  38:	0062102b 	sltu	$2,$3,$2
  3c:	10400012 	beqz	$2,88 <_Z10IPChecksumPh+0x88>
  40:	00000000 	sll	$0,$0,0x0
  44:	8fc30014 	lw	$3,20($30)
  48:	2402000a 	addiu	$2,$0,10
  4c:	10620009 	beq	$3,$2,74 <_Z10IPChecksumPh+0x74>
  50:	00000000 	sll	$0,$0,0x0
  54:	8fc50014 	lw	$5,20($30)
  58:	8fc40028 	lw	$4,40($30)
  5c:	0c000000 	jal	0 <_Z10IPChecksumPh>
  60:	00000000 	sll	$0,$0,0x0
  64:	00401825 	or	$3,$2,$0
  68:	8fc20010 	lw	$2,16($30)
  6c:	00431021 	addu	$2,$2,$3
  70:	afc20010 	sw	$2,16($30)
  74:	8fc20014 	lw	$2,20($30)
  78:	24420002 	addiu	$2,$2,2
  7c:	afc20014 	sw	$2,20($30)
  80:	1000ffeb 	beqz	$0,30 <_Z10IPChecksumPh+0x30>
  84:	00000000 	sll	$0,$0,0x0
  88:	8fc30010 	lw	$3,16($30)
  8c:	3c020001 	lui	$2,0x1
  90:	0062102b 	sltu	$2,$3,$2
  94:	14400009 	bnez	$2,bc <_Z10IPChecksumPh+0xbc>
  98:	00000000 	sll	$0,$0,0x0
  9c:	8fc20010 	lw	$2,16($30)
  a0:	3043ffff 	andi	$3,$2,0xffff
  a4:	8fc20010 	lw	$2,16($30)
  a8:	00021402 	srl	$2,$2,0x10
  ac:	00621021 	addu	$2,$3,$2
  b0:	afc20010 	sw	$2,16($30)
  b4:	1000fff4 	beqz	$0,88 <_Z10IPChecksumPh+0x88>
  b8:	00000000 	sll	$0,$0,0x0
  bc:	8fc20010 	lw	$2,16($30)
  c0:	3042ffff 	andi	$2,$2,0xffff
  c4:	00021027 	nor	$2,$0,$2
  c8:	3042ffff 	andi	$2,$2,0xffff
  cc:	03c0e825 	or	$29,$30,$0
  d0:	8fbf0024 	lw	$31,36($29)
  d4:	8fbe0020 	lw	$30,32($29)
  d8:	27bd0028 	addiu	$29,$29,40
  dc:	03e00008 	jr	$31
  e0:	00000000 	sll	$0,$0,0x0

Disassembly of section .text._Z5htonlj:

00000000 <_Z5htonlj>:
   0:	27bdfff8 	addiu	$29,$29,-8
   4:	afbe0004 	sw	$30,4($29)
   8:	03a0f025 	or	$30,$29,$0
   c:	afc40008 	sw	$4,8($30)
  10:	8fc20008 	lw	$2,8($30)
  14:	00021e02 	srl	$3,$2,0x18
  18:	8fc20008 	lw	$2,8($30)
  1c:	00021202 	srl	$2,$2,0x8
  20:	3042ff00 	andi	$2,$2,0xff00
  24:	00621825 	or	$3,$3,$2
  28:	8fc20008 	lw	$2,8($30)
  2c:	00022200 	sll	$4,$2,0x8
  30:	3c0200ff 	lui	$2,0xff
  34:	00821024 	and	$2,$4,$2
  38:	00621825 	or	$3,$3,$2
  3c:	8fc20008 	lw	$2,8($30)
  40:	00021600 	sll	$2,$2,0x18
  44:	00621025 	or	$2,$3,$2
  48:	03c0e825 	or	$29,$30,$0
  4c:	8fbe0004 	lw	$30,4($29)
  50:	27bd0008 	addiu	$29,$29,8
  54:	03e00008 	jr	$31
  58:	00000000 	sll	$0,$0,0x0

Disassembly of section .text._Z5ntohlj:

00000000 <_Z5ntohlj>:
   0:	27bdfff8 	addiu	$29,$29,-8
   4:	afbe0004 	sw	$30,4($29)
   8:	03a0f025 	or	$30,$29,$0
   c:	afc40008 	sw	$4,8($30)
  10:	8fc20008 	lw	$2,8($30)
  14:	00021e02 	srl	$3,$2,0x18
  18:	8fc20008 	lw	$2,8($30)
  1c:	00021202 	srl	$2,$2,0x8
  20:	3042ff00 	andi	$2,$2,0xff00
  24:	00621825 	or	$3,$3,$2
  28:	8fc20008 	lw	$2,8($30)
  2c:	00022200 	sll	$4,$2,0x8
  30:	3c0200ff 	lui	$2,0xff
  34:	00821024 	and	$2,$4,$2
  38:	00621825 	or	$3,$3,$2
  3c:	8fc20008 	lw	$2,8($30)
  40:	00021600 	sll	$2,$2,0x18
  44:	00621025 	or	$2,$3,$2
  48:	03c0e825 	or	$29,$30,$0
  4c:	8fbe0004 	lw	$30,4($29)
  50:	27bd0008 	addiu	$29,$29,8
  54:	03e00008 	jr	$31
  58:	00000000 	sll	$0,$0,0x0

Disassembly of section .text._Z5htonst:

00000000 <_Z5htonst>:
   0:	27bdfff8 	addiu	$29,$29,-8
   4:	afbe0004 	sw	$30,4($29)
   8:	03a0f025 	or	$30,$29,$0
   c:	00801025 	or	$2,$4,$0
  10:	a7c20008 	sh	$2,8($30)
  14:	97c20008 	lhu	$2,8($30)
  18:	00021202 	srl	$2,$2,0x8
  1c:	3042ffff 	andi	$2,$2,0xffff
  20:	00021c00 	sll	$3,$2,0x10
  24:	00031c03 	sra	$3,$3,0x10
  28:	97c20008 	lhu	$2,8($30)
  2c:	00021200 	sll	$2,$2,0x8
  30:	00021400 	sll	$2,$2,0x10
  34:	00021403 	sra	$2,$2,0x10
  38:	00621025 	or	$2,$3,$2
  3c:	00021400 	sll	$2,$2,0x10
  40:	00021403 	sra	$2,$2,0x10
  44:	3042ffff 	andi	$2,$2,0xffff
  48:	03c0e825 	or	$29,$30,$0
  4c:	8fbe0004 	lw	$30,4($29)
  50:	27bd0008 	addiu	$29,$29,8
  54:	03e00008 	jr	$31
  58:	00000000 	sll	$0,$0,0x0

Disassembly of section .text._Z5ntohst:

00000000 <_Z5ntohst>:
   0:	27bdfff8 	addiu	$29,$29,-8
   4:	afbe0004 	sw	$30,4($29)
   8:	03a0f025 	or	$30,$29,$0
   c:	00801025 	or	$2,$4,$0
  10:	a7c20008 	sh	$2,8($30)
  14:	97c20008 	lhu	$2,8($30)
  18:	00021202 	srl	$2,$2,0x8
  1c:	3042ffff 	andi	$2,$2,0xffff
  20:	00021c00 	sll	$3,$2,0x10
  24:	00031c03 	sra	$3,$3,0x10
  28:	97c20008 	lhu	$2,8($30)
  2c:	00021200 	sll	$2,$2,0x8
  30:	00021400 	sll	$2,$2,0x10
  34:	00021403 	sra	$2,$2,0x10
  38:	00621025 	or	$2,$3,$2
  3c:	00021400 	sll	$2,$2,0x10
  40:	00021403 	sra	$2,$2,0x10
  44:	3042ffff 	andi	$2,$2,0xffff
  48:	03c0e825 	or	$29,$30,$0
  4c:	8fbe0004 	lw	$30,4($29)
  50:	27bd0008 	addiu	$29,$29,8
  54:	03e00008 	jr	$31
  58:	00000000 	sll	$0,$0,0x0

Disassembly of section .text._Z7putcharc:

00000000 <_Z7putcharc>:
   0:	27bdfff8 	addiu	$29,$29,-8
   4:	afbe0004 	sw	$30,4($29)
   8:	03a0f025 	or	$30,$29,$0
   c:	00801025 	or	$2,$4,$0
  10:	a3c20008 	sb	$2,8($30)
  14:	00000000 	sll	$0,$0,0x0
  18:	03c0e825 	or	$29,$30,$0
  1c:	8fbe0004 	lw	$30,4($29)
  20:	27bd0008 	addiu	$29,$29,8
  24:	03e00008 	jr	$31
  28:	00000000 	sll	$0,$0,0x0

Disassembly of section .text._Z6printfPKc:

00000000 <_Z6printfPKc>:
   0:	27bdfff8 	addiu	$29,$29,-8
   4:	afbe0004 	sw	$30,4($29)
   8:	03a0f025 	or	$30,$29,$0
   c:	afc40008 	sw	$4,8($30)
  10:	00000000 	sll	$0,$0,0x0
  14:	03c0e825 	or	$29,$30,$0
  18:	8fbe0004 	lw	$30,4($29)
  1c:	27bd0008 	addiu	$29,$29,8
  20:	03e00008 	jr	$31
  24:	00000000 	sll	$0,$0,0x0

Disassembly of section .text._Z6memsetPvcm:

00000000 <_Z6memsetPvcm>:
   0:	27bdfff0 	addiu	$29,$29,-16
   4:	afbe000c 	sw	$30,12($29)
   8:	03a0f025 	or	$30,$29,$0
   c:	afc40010 	sw	$4,16($30)
  10:	00a01025 	or	$2,$5,$0
  14:	afc60018 	sw	$6,24($30)
  18:	a3c20014 	sb	$2,20($30)
  1c:	8fc20010 	lw	$2,16($30)
  20:	afc20000 	sw	$2,0($30)
  24:	8fc20018 	lw	$2,24($30)
  28:	2443ffff 	addiu	$3,$2,-1
  2c:	afc30018 	sw	$3,24($30)
  30:	0002102b 	sltu	$2,$0,$2
  34:	304200ff 	andi	$2,$2,0xff
  38:	10400008 	beqz	$2,5c <_Z6memsetPvcm+0x5c>
  3c:	00000000 	sll	$0,$0,0x0
  40:	8fc20000 	lw	$2,0($30)
  44:	24430001 	addiu	$3,$2,1
  48:	afc30000 	sw	$3,0($30)
  4c:	93c30014 	lbu	$3,20($30)
  50:	a0430000 	sb	$3,0($2)
  54:	1000fff3 	beqz	$0,24 <_Z6memsetPvcm+0x24>
  58:	00000000 	sll	$0,$0,0x0
  5c:	00000000 	sll	$0,$0,0x0
  60:	03c0e825 	or	$29,$30,$0
  64:	8fbe000c 	lw	$30,12($29)
  68:	27bd0010 	addiu	$29,$29,16
  6c:	03e00008 	jr	$31
  70:	00000000 	sll	$0,$0,0x0

Disassembly of section .text._Z6memcpyPvS_m:

00000000 <_Z6memcpyPvS_m>:
   0:	27bdfff0 	addiu	$29,$29,-16
   4:	afbe000c 	sw	$30,12($29)
   8:	03a0f025 	or	$30,$29,$0
   c:	afc40010 	sw	$4,16($30)
  10:	afc50014 	sw	$5,20($30)
  14:	afc60018 	sw	$6,24($30)
  18:	8fc20010 	lw	$2,16($30)
  1c:	afc20000 	sw	$2,0($30)
  20:	8fc20014 	lw	$2,20($30)
  24:	afc20004 	sw	$2,4($30)
  28:	8fc20018 	lw	$2,24($30)
  2c:	2443ffff 	addiu	$3,$2,-1
  30:	afc30018 	sw	$3,24($30)
  34:	0002102b 	sltu	$2,$0,$2
  38:	304200ff 	andi	$2,$2,0xff
  3c:	1040000b 	beqz	$2,6c <_Z6memcpyPvS_m+0x6c>
  40:	00000000 	sll	$0,$0,0x0
  44:	8fc30004 	lw	$3,4($30)
  48:	24620001 	addiu	$2,$3,1
  4c:	afc20004 	sw	$2,4($30)
  50:	8fc20000 	lw	$2,0($30)
  54:	24440001 	addiu	$4,$2,1
  58:	afc40000 	sw	$4,0($30)
  5c:	80630000 	lb	$3,0($3)
  60:	a0430000 	sb	$3,0($2)
  64:	1000fff0 	beqz	$0,28 <_Z6memcpyPvS_m+0x28>
  68:	00000000 	sll	$0,$0,0x0
  6c:	00000000 	sll	$0,$0,0x0
  70:	03c0e825 	or	$29,$30,$0
  74:	8fbe000c 	lw	$30,12($29)
  78:	27bd0010 	addiu	$29,$29,16
  7c:	03e00008 	jr	$31
  80:	00000000 	sll	$0,$0,0x0

Disassembly of section .text._Z3minjj:

00000000 <_Z3minjj>:
   0:	27bdfff8 	addiu	$29,$29,-8
   4:	afbe0004 	sw	$30,4($29)
   8:	03a0f025 	or	$30,$29,$0
   c:	afc40008 	sw	$4,8($30)
  10:	afc5000c 	sw	$5,12($30)
  14:	8fc30008 	lw	$3,8($30)
  18:	8fc2000c 	lw	$2,12($30)
  1c:	0043102b 	sltu	$2,$2,$3
  20:	10400004 	beqz	$2,34 <_Z3minjj+0x34>
  24:	00000000 	sll	$0,$0,0x0
  28:	8fc2000c 	lw	$2,12($30)
  2c:	10000002 	beqz	$0,38 <_Z3minjj+0x38>
  30:	00000000 	sll	$0,$0,0x0
  34:	8fc20008 	lw	$2,8($30)
  38:	03c0e825 	or	$29,$30,$0
  3c:	8fbe0004 	lw	$30,4($29)
  40:	27bd0008 	addiu	$29,$29,8
  44:	03e00008 	jr	$31
  48:	00000000 	sll	$0,$0,0x0

Disassembly of section .debug_info:

00000000 <.debug_info>:
   0:	0000043c 	0x43c
   4:	00000004 	sllv	$0,$0,$0
   8:	01040000 	0x1040000
   c:	000001b8 	0x1b8
  10:	0002a704 	0x2a704
  14:	0000b100 	sll	$22,$0,0x4
	...
  24:	06010200 	bgez	$16,828 <_Z7getDataPKhm+0x828>
  28:	00000145 	0x145
  2c:	2c050202 	sltiu	$5,$0,514
  30:	03000000 	0x3000000
  34:	6e690504 	0x6e690504
  38:	08020074 	j	801d0 <_Z7getDataPKhm+0x801d0>
  3c:	00008605 	0x8605
  40:	00720400 	0x720400
  44:	2e020000 	sltiu	$2,$16,0
  48:	00000051 	0x51
  4c:	00004105 	0x4105
  50:	08010200 	j	40800 <_Z7getDataPKhm+0x40800>
  54:	00000137 	0x137
  58:	00018804 	sllv	$17,$1,$0
  5c:	63310200 	0x63310200
  60:	02000000 	0x2000000
  64:	01a00702 	0x1a00702
  68:	72040000 	madd	$16,$4
  6c:	02000001 	movf	$0,$16,$fcc0
  70:	00007534 	teq	$0,$0,0x1d4
  74:	07040200 	0x7040200
  78:	0000017b 	0x17b
  7c:	51070802 	beql	$8,$7,2088 <_Z7getDataPKhm+0x2088>
  80:	04000001 	bltz	$0,88 <.debug_info+0x88>
  84:	00000036 	tne	$0,$0
  88:	008e0603 	0x8e0603
  8c:	04020000 	bltzl	$0,90 <.debug_info+0x90>
  90:	0002b307 	0x2b307
  94:	696d0600 	0x696d0600
  98:	5b01006e 	0x5b01006e
  9c:	0000029e 	0x29e
  a0:	00000075 	0x75
  a4:	00000000 	sll	$0,$0,0x0
  a8:	0000004c 	syscall	0x1
  ac:	00cb9c01 	0xcb9c01
  b0:	78070000 	0x78070000
  b4:	755b0100 	jalx	56c0400 <_Z7getDataPKhm+0x56c0400>
  b8:	02000000 	0x2000000
  bc:	79070091 	0x79070091
  c0:	755b0100 	jalx	56c0400 <_Z7getDataPKhm+0x56c0400>
  c4:	02000000 	0x2000000
  c8:	08000491 	j	1244 <_Z7getDataPKhm+0x1244>
  cc:	00000058 	0x58
  d0:	009b5401 	0x9b5401
  d4:	00000000 	sll	$0,$0,0x0
  d8:	00840000 	0x840000
  dc:	9c010000 	0x9c010000
  e0:	0000012b 	0x12b
  e4:	74736407 	jalx	1cd901c <_Z7getDataPKhm+0x1cd901c>
  e8:	2b540100 	slti	$20,$26,256
  ec:	02000001 	movf	$0,$16,$fcc0
  f0:	73070091 	0x73070091
  f4:	01006372 	tlt	$8,$0,0x18d
  f8:	00012b54 	0x12b54
  fc:	04910200 	bgezal	$4,900 <_Z7getDataPKhm+0x900>
 100:	6e656c07 	0x6e656c07
 104:	83540100 	lb	$20,256($26)
 108:	02000000 	0x2000000
 10c:	07090891 	tgeiu	$24,2193
 110:	01000003 	0x1000003
 114:	00012d56 	0x12d56
 118:	70910200 	0x70910200
 11c:	0002f709 	0x2f709
 120:	2d560100 	sltiu	$22,$10,256
 124:	02000001 	movf	$0,$16,$fcc0
 128:	0a007491 	j	801d244 <_Z7getDataPKhm+0x801d244>
 12c:	33040b04 	andi	$4,$24,0xb04
 130:	02000001 	movf	$0,$16,$fcc0
 134:	01b30601 	0x1b30601
 138:	33050000 	andi	$5,$24,0x0
 13c:	08000001 	j	4 <.debug_info+0x4>
 140:	00000094 	0x94
 144:	00124d01 	0x124d01
 148:	00000000 	sll	$0,$0,0x0
 14c:	00740000 	0x740000
 150:	9c010000 	0x9c010000
 154:	0000018c 	syscall	0x6
 158:	01007307 	0x1007307
 15c:	00012b4d 	break	0x1,0xad
 160:	00910200 	0x910200
 164:	01006307 	0x1006307
 168:	0001334d 	break	0x1,0xcd
 16c:	04910200 	bgezal	$4,970 <_Z7getDataPKhm+0x970>
 170:	6e656c07 	0x6e656c07
 174:	834d0100 	lb	$13,256($26)
 178:	02000000 	0x2000000
 17c:	630c0891 	0x630c0891
 180:	4f010073 	c3	0x1010073
 184:	0000012d 	0x12d
 188:	00709102 	0x709102
 18c:	0000aa08 	0xaa08
 190:	654b0100 	0x654b0100
 194:	00000000 	sll	$0,$0,0x0
 198:	28000000 	slti	$0,$0,0
 19c:	01000000 	0x1000000
 1a0:	0001b39c 	0x1b39c
 1a4:	74730700 	jalx	1cc1c00 <_Z7getDataPKhm+0x1cc1c00>
 1a8:	b34b0100 	0xb34b0100
 1ac:	02000001 	movf	$0,$16,$fcc0
 1b0:	0b000091 	j	c000244 <_Z7getDataPKhm+0xc000244>
 1b4:	00013a04 	0x13a04
 1b8:	003d0800 	0x3d0800
 1bc:	49010000 	bc2t	1c0 <.debug_info+0x1c0>
 1c0:	00000006 	srlv	$0,$0,$0
 1c4:	00000000 	sll	$0,$0,0x0
 1c8:	0000002c 	0x2c
 1cc:	01df9c01 	0x1df9c01
 1d0:	63070000 	0x63070000
 1d4:	33490100 	andi	$9,$26,0x100
 1d8:	02000001 	movf	$0,$16,$fcc0
 1dc:	0d000091 	jal	4000244 <_Z7getDataPKhm+0x4000244>
 1e0:	00000020 	add	$0,$0,$0
 1e4:	01684401 	0x1684401
 1e8:	00580000 	0x580000
 1ec:	00000000 	sll	$0,$0,0x0
 1f0:	005c0000 	0x5c0000
 1f4:	9c010000 	0x9c010000
 1f8:	0000020a 	0x20a
 1fc:	00736e07 	0x736e07
 200:	00584401 	0x584401
 204:	91020000 	lbu	$2,0($8)
 208:	5f0d0000 	0x5f0d0000
 20c:	01000000 	0x1000000
 210:	0002e63f 	0x2e63f
 214:	00005800 	sll	$11,$0,0x0
 218:	00000000 	sll	$0,$0,0x0
 21c:	00005c00 	sll	$11,$0,0x10
 220:	359c0100 	ori	$28,$12,0x100
 224:	07000002 	bltz	$24,230 <.debug_info+0x230>
 228:	01007368 	0x1007368
 22c:	0000583f 	0x583f
 230:	00910200 	0x910200
 234:	00000d00 	sll	$1,$0,0x14
 238:	3a010000 	xori	$1,$16,0x0
 23c:	000002fd 	0x2fd
 240:	0000006a 	0x6a
 244:	00000000 	sll	$0,$0,0x0
 248:	0000005c 	0x5c
 24c:	02609c01 	0x2609c01
 250:	6e070000 	0x6e070000
 254:	3a01006c 	xori	$1,$16,0x6c
 258:	0000006a 	0x6a
 25c:	00009102 	srl	$18,$0,0x4
 260:	0002d70d 	break	0x2,0x35c
 264:	0d350100 	jal	4d40400 <_Z7getDataPKhm+0x4d40400>
 268:	6a000003 	0x6a000003
 26c:	00000000 	sll	$0,$0,0x0
 270:	5c000000 	bgtzl	$0,274 <.debug_info+0x274>
 274:	01000000 	0x1000000
 278:	00028b9c 	0x28b9c
 27c:	6c680700 	0x6c680700
 280:	6a350100 	0x6a350100
 284:	02000000 	0x2000000
 288:	0e000091 	jal	8000244 <_Z7getDataPKhm+0x8000244>
 28c:	00000317 	0x317
 290:	028d2701 	0x28d2701
 294:	00580000 	0x580000
 298:	00000000 	sll	$0,$0,0x0
 29c:	00e40000 	0xe40000
 2a0:	9c010000 	0x9c010000
 2a4:	000002e5 	0x2e5
 2a8:	00007a0f 	0x7a0f
 2ac:	e5270100 	swc1	$f7,256($9)
 2b0:	02000002 	0x2000002
 2b4:	6e0c0091 	0x6e0c0091
 2b8:	6a290100 	0x6a290100
 2bc:	02000000 	0x2000000
 2c0:	780c7091 	0x780c7091
 2c4:	6a2b0100 	0x6a2b0100
 2c8:	02000000 	0x2000000
 2cc:	2c106891 	sltiu	$16,$0,26769
 2d0:	5c000000 	bgtzl	$0,2d4 <.debug_info+0x2d4>
 2d4:	0c000000 	jal	0 <.debug_info>
 2d8:	2c010069 	sltiu	$1,$0,105
 2dc:	0000006a 	0x6a
 2e0:	006c9102 	0x6c9102
 2e4:	41040b00 	0x41040b00
 2e8:	0e000000 	jal	8000000 <_Z7getDataPKhm+0x8000000>
 2ec:	00000081 	0x81
 2f0:	02c52201 	0x2c52201
 2f4:	006a0000 	0x6a0000
 2f8:	00000000 	sll	$0,$0,0x0
 2fc:	006c0000 	0x6c0000
 300:	9c010000 	0x9c010000
 304:	00000325 	0x325
 308:	0002880f 	0x2880f
 30c:	6a220100 	0x6a220100
 310:	02000000 	0x2000000
 314:	6c070091 	0x6c070091
 318:	01006e65 	0x1006e65
 31c:	00003322 	0x3322
 320:	04910200 	bgezal	$4,b24 <_Z7getDataPKhm+0xb24>
 324:	02f01100 	0x2f01100
 328:	1c010000 	0x1c010000
 32c:	0000004d 	break	0x0,0x1
 330:	00000000 	sll	$0,$0,0x0
 334:	00000090 	0x90
 338:	03619c01 	0x3619c01
 33c:	78070000 	0x78070000
 340:	6a1c0100 	0x6a1c0100
 344:	02000000 	0x2000000
 348:	14100091 	bne	$0,$16,590 <_Z7getDataPKhm+0x590>
 34c:	60000000 	0x60000000
 350:	0c000000 	jal	0 <.debug_info>
 354:	1e010069 	0x1e010069
 358:	00000033 	tltu	$0,$0
 35c:	00709102 	0x709102
 360:	756f1200 	jalx	5bc4800 <_Z7getDataPKhm+0x5bc4800>
 364:	16010074 	bne	$16,$1,538 <_Z7getDataPKhm+0x538>
 368:	000002dd 	0x2dd
 36c:	00000000 	sll	$0,$0,0x0
 370:	0000008c 	syscall	0x2
 374:	03939c01 	0x3939c01
 378:	78070000 	0x78070000
 37c:	75160100 	jalx	4580400 <_Z7getDataPKhm+0x4580400>
 380:	02000000 	0x2000000
 384:	6e070091 	0x6e070091
 388:	33160100 	andi	$22,$24,0x100
 38c:	02000000 	0x2000000
 390:	0d000491 	jal	4001244 <_Z7getDataPKhm+0x4001244>
 394:	000002cf 	sync	0xb
 398:	012b0e01 	0x12b0e01
 39c:	00410000 	0x410000
 3a0:	00000000 	sll	$0,$0,0x0
 3a4:	00f80000 	0xf80000
 3a8:	9c010000 	0x9c010000
 3ac:	000003bd 	0x3bd
 3b0:	01006207 	0x1006207
 3b4:	0000410e 	0x410e
 3b8:	00910200 	0x910200
 3bc:	01100800 	0x1100800
 3c0:	08010000 	j	40000 <_Z7getDataPKhm+0x40000>
 3c4:	0000011a 	0x11a
 3c8:	00000000 	sll	$0,$0,0x0
 3cc:	00000068 	0x68
 3d0:	03ff9c01 	0x3ff9c01
 3d4:	7a0f0000 	0x7a0f0000
 3d8:	01000000 	0x1000000
 3dc:	0002e508 	0x2e508
 3e0:	00910200 	0x910200
 3e4:	0000260f 	0x260f
 3e8:	83080100 	lb	$8,256($24)
 3ec:	02000000 	0x2000000
 3f0:	78070491 	0x78070491
 3f4:	33080100 	andi	$8,$24,0x100
 3f8:	02000000 	0x2000000
 3fc:	0d000891 	jal	4002244 <_Z7getDataPKhm+0x4002244>
 400:	00000045 	0x45
 404:	01910301 	0x1910301
 408:	00330000 	0x330000
 40c:	00000000 	sll	$0,$0,0x0
 410:	00540000 	0x540000
 414:	9c010000 	0x9c010000
 418:	00000439 	0x439
 41c:	00007a0f 	0x7a0f
 420:	39030100 	xori	$3,$8,0x100
 424:	02000004 	sllv	$0,$0,$16
 428:	260f0091 	addiu	$15,$16,145
 42c:	01000000 	0x1000000
 430:	00008303 	sra	$16,$0,0xc
 434:	04910200 	bgezal	$4,c38 <_Z7getDataPKhm+0xc38>
 438:	4c040b00 	0x4c040b00
 43c:	00000000 	sll	$0,$0,0x0

Disassembly of section .debug_abbrev:

00000000 <.debug_abbrev>:
   0:	25011101 	addiu	$1,$8,4353
   4:	030b130e 	0x30b130e
   8:	550e1b0e 	bnel	$8,$14,6c44 <_Z7getDataPKhm+0x6c44>
   c:	10011117 	beq	$0,$1,446c <_Z7getDataPKhm+0x446c>
  10:	02000017 	0x2000017
  14:	0b0b0024 	j	c2c0090 <_Z7getDataPKhm+0xc2c0090>
  18:	0e030b3e 	jal	80c2cf8 <_Z7getDataPKhm+0x80c2cf8>
  1c:	24030000 	addiu	$3,$0,0
  20:	3e0b0b00 	0x3e0b0b00
  24:	0008030b 	0x8030b
  28:	00160400 	sll	$0,$22,0x10
  2c:	0b3a0e03 	j	ce8380c <_Z7getDataPKhm+0xce8380c>
  30:	13490b3b 	beq	$26,$9,2d20 <_Z7getDataPKhm+0x2d20>
  34:	26050000 	addiu	$5,$16,0
  38:	00134900 	sll	$9,$19,0x4
  3c:	012e0600 	0x12e0600
  40:	0803193f 	j	c64fc <_Z7getDataPKhm+0xc64fc>
  44:	0b3b0b3a 	j	cec2ce8 <_Z7getDataPKhm+0xcec2ce8>
  48:	13490e6e 	beq	$26,$9,3a04 <_Z7getDataPKhm+0x3a04>
  4c:	06120111 	bltzall	$16,494 <_Z7getDataPKhm+0x494>
  50:	42971840 	c0	0x971840
  54:	00130119 	0x130119
  58:	00050700 	sll	$0,$5,0x1c
  5c:	0b3a0803 	j	ce8200c <_Z7getDataPKhm+0xce8200c>
  60:	13490b3b 	beq	$26,$9,2d50 <_Z7getDataPKhm+0x2d50>
  64:	00001802 	srl	$3,$0,0x0
  68:	3f012e08 	0x3f012e08
  6c:	3a0e0319 	xori	$14,$16,0x319
  70:	6e0b3b0b 	0x6e0b3b0b
  74:	1201110e 	beq	$16,$1,44b0 <_Z7getDataPKhm+0x44b0>
  78:	97184006 	lhu	$24,16390($24)
  7c:	13011942 	beq	$24,$1,6588 <_Z7getDataPKhm+0x6588>
  80:	34090000 	ori	$9,$0,0x0
  84:	3a0e0300 	xori	$14,$16,0x300
  88:	490b3b0b 	bc2tl	$cc2,ecb8 <_Z7getDataPKhm+0xecb8>
  8c:	00180213 	0x180213
  90:	000f0a00 	sll	$1,$15,0x8
  94:	00000b0b 	0xb0b
  98:	0b000f0b 	j	c003c2c <_Z7getDataPKhm+0xc003c2c>
  9c:	0013490b 	0x13490b
  a0:	00340c00 	0x340c00
  a4:	0b3a0803 	j	ce8200c <_Z7getDataPKhm+0xce8200c>
  a8:	13490b3b 	beq	$26,$9,2d98 <_Z7getDataPKhm+0x2d98>
  ac:	00001802 	srl	$3,$0,0x0
  b0:	3f012e0d 	0x3f012e0d
  b4:	3a0e0319 	xori	$14,$16,0x319
  b8:	6e0b3b0b 	0x6e0b3b0b
  bc:	1113490e 	beq	$8,$19,124f8 <_Z7getDataPKhm+0x124f8>
  c0:	40061201 	0x40061201
  c4:	19429718 	0x19429718
  c8:	00001301 	0x1301
  cc:	3f012e0e 	0x3f012e0e
  d0:	3a0e0319 	xori	$14,$16,0x319
  d4:	6e0b3b0b 	0x6e0b3b0b
  d8:	1113490e 	beq	$8,$19,12514 <_Z7getDataPKhm+0x12514>
  dc:	40061201 	0x40061201
  e0:	19429618 	0x19429618
  e4:	00001301 	0x1301
  e8:	0300050f 	0x300050f
  ec:	3b0b3a0e 	xori	$11,$24,0x3a0e
  f0:	0213490b 	0x213490b
  f4:	10000018 	beqz	$0,158 <_Z7getDataPKhm+0x158>
  f8:	0111010b 	0x111010b
  fc:	00000612 	0x612
 100:	3f012e11 	0x3f012e11
 104:	3a0e0319 	xori	$14,$16,0x319
 108:	6e0b3b0b 	0x6e0b3b0b
 10c:	1201110e 	beq	$16,$1,4548 <_Z7getDataPKhm+0x4548>
 110:	96184006 	lhu	$24,16390($16)
 114:	13011942 	beq	$24,$1,6620 <_Z7getDataPKhm+0x6620>
 118:	2e120000 	sltiu	$18,$16,0
 11c:	03193f01 	0x3193f01
 120:	3b0b3a08 	xori	$11,$24,0x3a08
 124:	110e6e0b 	beq	$8,$14,1b954 <_Z7getDataPKhm+0x1b954>
 128:	40061201 	0x40061201
 12c:	19429618 	0x19429618
 130:	00001301 	0x1301
	...

Disassembly of section .debug_aranges:

00000000 <.debug_aranges>:
   0:	00000094 	0x94
   4:	00000002 	srl	$0,$0,0x0
   8:	00040000 	sll	$0,$4,0x0
	...
  14:	00000054 	0x54
  18:	00000000 	sll	$0,$0,0x0
  1c:	00000068 	0x68
  20:	00000000 	sll	$0,$0,0x0
  24:	000000f8 	0xf8
  28:	00000000 	sll	$0,$0,0x0
  2c:	0000008c 	syscall	0x2
  30:	00000000 	sll	$0,$0,0x0
  34:	00000090 	0x90
  38:	00000000 	sll	$0,$0,0x0
  3c:	0000006c 	0x6c
  40:	00000000 	sll	$0,$0,0x0
  44:	000000e4 	0xe4
  48:	00000000 	sll	$0,$0,0x0
  4c:	0000005c 	0x5c
  50:	00000000 	sll	$0,$0,0x0
  54:	0000005c 	0x5c
  58:	00000000 	sll	$0,$0,0x0
  5c:	0000005c 	0x5c
  60:	00000000 	sll	$0,$0,0x0
  64:	0000005c 	0x5c
  68:	00000000 	sll	$0,$0,0x0
  6c:	0000002c 	0x2c
  70:	00000000 	sll	$0,$0,0x0
  74:	00000028 	0x28
  78:	00000000 	sll	$0,$0,0x0
  7c:	00000074 	teq	$0,$0,0x1
  80:	00000000 	sll	$0,$0,0x0
  84:	00000084 	0x84
  88:	00000000 	sll	$0,$0,0x0
  8c:	0000004c 	syscall	0x1
	...

Disassembly of section .debug_ranges:

00000000 <.debug_ranges>:
   0:	00000000 	sll	$0,$0,0x0
   4:	00000054 	0x54
   8:	00000000 	sll	$0,$0,0x0
   c:	00000068 	0x68
  10:	00000000 	sll	$0,$0,0x0
  14:	000000f8 	0xf8
  18:	00000000 	sll	$0,$0,0x0
  1c:	0000008c 	syscall	0x2
  20:	00000000 	sll	$0,$0,0x0
  24:	00000090 	0x90
  28:	00000000 	sll	$0,$0,0x0
  2c:	0000006c 	0x6c
  30:	00000000 	sll	$0,$0,0x0
  34:	000000e4 	0xe4
  38:	00000000 	sll	$0,$0,0x0
  3c:	0000005c 	0x5c
  40:	00000000 	sll	$0,$0,0x0
  44:	0000005c 	0x5c
  48:	00000000 	sll	$0,$0,0x0
  4c:	0000005c 	0x5c
  50:	00000000 	sll	$0,$0,0x0
  54:	0000005c 	0x5c
  58:	00000000 	sll	$0,$0,0x0
  5c:	0000002c 	0x2c
  60:	00000000 	sll	$0,$0,0x0
  64:	00000028 	0x28
  68:	00000000 	sll	$0,$0,0x0
  6c:	00000074 	teq	$0,$0,0x1
  70:	00000000 	sll	$0,$0,0x0
  74:	00000084 	0x84
  78:	00000000 	sll	$0,$0,0x0
  7c:	0000004c 	syscall	0x1
	...

Disassembly of section .debug_line:

00000000 <.debug_line>:
   0:	000001ec 	0x1ec
   4:	006b0002 	0x6b0002
   8:	01010000 	0x1010000
   c:	000d0efb 	0xd0efb
  10:	01010101 	0x1010101
  14:	01000000 	0x1000000
  18:	2f010000 	sltiu	$1,$24,0
  1c:	2f727375 	sltiu	$18,$27,29557
  20:	2f62696c 	sltiu	$2,$27,26988
  24:	2d636367 	sltiu	$3,$11,25447
  28:	736f7263 	0x736f7263
  2c:	696d2f73 	0x696d2f73
  30:	6c2d7370 	0x6c2d7370
  34:	78756e69 	0x78756e69
  38:	756e672d 	jalx	5b99cb4 <_Z7getDataPKhm+0x5b99cb4>
  3c:	692f372f 	0x692f372f
  40:	756c636e 	jalx	5b18db8 <_Z7getDataPKhm+0x5b18db8>
  44:	00006564 	0x6564
  48:	6c697475 	0x6c697475
  4c:	2e797469 	sltiu	$25,$19,29801
  50:	00707063 	0x707063
  54:	73000000 	madd	$24,$0
  58:	6e696474 	0x6e696474
  5c:	63672d74 	0x63672d74
  60:	00682e63 	0x682e63
  64:	75000001 	jalx	4000004 <_Z7getDataPKhm+0x4000004>
  68:	696c6974 	0x696c6974
  6c:	682e7974 	0x682e7974
  70:	00000000 	sll	$0,$0,0x0
  74:	02050000 	0x2050000
  78:	00000000 	sll	$0,$0,0x0
  7c:	023d0815 	0x23d0815
  80:	1402132c 	bne	$0,$2,4d34 <_Z7getDataPKhm+0x4d34>
  84:	00010100 	sll	$0,$1,0x4
  88:	00000205 	0x205
  8c:	081a0000 	j	680000 <_Z7getDataPKhm+0x680000>
  90:	08ad0875 	j	2b421d4 <_Z7getDataPKhm+0x2b421d4>
  94:	001802ad 	0x1802ad
  98:	05000101 	bltz	$8,4a0 <_Z7getDataPKhm+0x4a0>
  9c:	00000002 	srl	$0,$0,0x0
  a0:	010e0300 	0x10e0300
  a4:	34023d08 	ori	$2,$0,0x3d08
  a8:	134c0213 	beq	$26,$12,8f8 <_Z7getDataPKhm+0x8f8>
  ac:	4b134c02 	c2	0x1134c02
  b0:	01001402 	0x1001402
  b4:	02050001 	movt	$0,$16,$fcc1
  b8:	00000000 	sll	$0,$0,0x0
  bc:	08011603 	j	4580c <_Z7getDataPKhm+0x4580c>
  c0:	02ad0875 	0x2ad0875
  c4:	02841134 	teq	$20,$4,0x44
  c8:	0101001c 	0x101001c
  cc:	00020500 	sll	$0,$2,0x14
  d0:	03000000 	0x3000000
  d4:	3d08011c 	0x3d08011c
  d8:	01040200 	0x1040200
  dc:	08068206 	j	1a0818 <_Z7getDataPKhm+0x1a0818>
  e0:	113402ad 	beq	$9,$20,b98 <_Z7getDataPKhm+0xb98>
  e4:	001c0284 	0x1c0284
  e8:	05000101 	bltz	$8,4f0 <_Z7getDataPKhm+0x4f0>
  ec:	00000002 	srl	$0,$0,0x0
  f0:	01220300 	0x1220300
  f4:	3c027508 	lui	$2,0x7508
  f8:	00180213 	0x180213
  fc:	05000101 	bltz	$8,504 <_Z7getDataPKhm+0x504>
 100:	00000002 	srl	$0,$0,0x0
 104:	01270300 	0x1270300
 108:	3e083d08 	0x3e083d08
 10c:	0402004b 	bltzl	$0,23c <_Z7getDataPKhm+0x23c>
 110:	064a0601 	tlti	$18,1537
 114:	00f33d08 	0xf33d08
 118:	08020402 	j	81008 <_Z7getDataPKhm+0x81008>
 11c:	083f08e2 	j	fc2388 <_Z7getDataPKhm+0xfc2388>
 120:	8573083d 	lh	$19,2109($11)
 124:	001802f3 	tltu	$0,$24,0xb
 128:	05000101 	bltz	$8,530 <_Z7getDataPKhm+0x530>
 12c:	00000002 	srl	$0,$0,0x0
 130:	01350300 	0x1350300
 134:	133802f3 	beq	$25,$24,d04 <_Z7getDataPKhm+0xd04>
 138:	01001402 	0x1001402
 13c:	02050001 	movt	$0,$16,$fcc1
 140:	00000000 	sll	$0,$0,0x0
 144:	f3013a03 	0xf3013a03
 148:	02133802 	0x2133802
 14c:	01010014 	0x1010014
 150:	00020500 	sll	$0,$2,0x14
 154:	03000000 	0x3000000
 158:	3d08013f 	0x3d08013f
 15c:	02133402 	0x2133402
 160:	01010014 	0x1010014
 164:	00020500 	sll	$0,$2,0x14
 168:	03000000 	0x3000000
 16c:	080100c4 	j	40310 <_Z7getDataPKhm+0x40310>
 170:	1334023d 	beq	$25,$20,a68 <_Z7getDataPKhm+0xa68>
 174:	01001402 	0x1001402
 178:	02050001 	movt	$0,$16,$fcc1
 17c:	00000000 	sll	$0,$0,0x0
 180:	0100c803 	0x100c803
 184:	18023c08 	0x18023c08
 188:	00010100 	sll	$0,$1,0x4
 18c:	00000205 	0x205
 190:	ca030000 	lwc2	$3,0($16)
 194:	02f20100 	0x2f20100
 198:	01010018 	mult	$8,$1
 19c:	00020500 	sll	$0,$2,0x14
 1a0:	03000000 	0x3000000
 1a4:	080100cd 	j	40334 <_Z7getDataPKhm+0x40334>
 1a8:	ad0883ad 	sw	$8,-31827($8)
 1ac:	02843b08 	0x2843b08
 1b0:	01010018 	mult	$8,$1
 1b4:	00020500 	sll	$0,$2,0x14
 1b8:	03000000 	0x3000000
 1bc:	080100d4 	j	40350 <_Z7getDataPKhm+0x40350>
 1c0:	ad08f375 	sw	$8,-3211($8)
 1c4:	0284e308 	0x284e308
 1c8:	01010018 	mult	$8,$1
 1cc:	00020500 	sll	$0,$2,0x14
 1d0:	03000000 	0x3000000
 1d4:	080100db 	j	4036c <_Z7getDataPKhm+0x4036c>
 1d8:	0402003d 	bltzl	$0,2d0 <_Z7getDataPKhm+0x2d0>
 1dc:	3c080601 	lui	$8,0x601
 1e0:	02040200 	0x2040200
 1e4:	040200ba 	bltzl	$0,4d0 <_Z7getDataPKhm+0x4d0>
 1e8:	024b0605 	0x24b0605
 1ec:	01010014 	0x1010014

Disassembly of section .debug_str:

00000000 <.debug_str>:
   0:	686f746e 	0x686f746e
   4:	5a5f006c 	0x5a5f006c
   8:	74757037 	jalx	1d5c0dc <_Z7getDataPKhm+0x1d5c0dc>
   c:	72616863 	0x72616863
  10:	5a5f0063 	0x5a5f0063
  14:	6d656d36 	0x6d656d36
  18:	50746573 	beql	$3,$20,195e8 <_Z7getDataPKhm+0x195e8>
  1c:	006d6376 	tne	$3,$13,0x18d
  20:	686f746e 	0x686f746e
  24:	6e690073 	0x6e690073
  28:	00786564 	0x786564
  2c:	726f6873 	0x726f6873
  30:	6e692074 	0x6e692074
  34:	69730074 	0x69730074
  38:	745f657a 	jalx	17d95e8 <_Z7getDataPKhm+0x17d95e8>
  3c:	74757000 	jalx	1d5c000 <_Z7getDataPKhm+0x1d5c000>
  40:	72616863 	0x72616863
  44:	74656700 	jalx	1959c00 <_Z7getDataPKhm+0x1959c00>
  48:	61746144 	0x61746144
  4c:	365a5f00 	ori	$26,$18,0x5f00
  50:	7074756f 	0x7074756f
  54:	006a7475 	0x6a7475
  58:	636d656d 	0x636d656d
  5c:	68007970 	0x68007970
  60:	736e6f74 	0x736e6f74
  64:	365a5f00 	ori	$26,$18,0x5f00
  68:	6e697270 	0x6e697270
  6c:	4b506674 	c2	0x1506674
  70:	69750063 	0x69750063
  74:	5f38746e 	0x5f38746e
  78:	61700074 	0x61700074
  7c:	74656b63 	jalx	195ad8c <_Z7getDataPKhm+0x195ad8c>
  80:	6c616300 	0x6c616300
  84:	6f6c0063 	0x6f6c0063
  88:	6c20676e 	0x6c20676e
  8c:	20676e6f 	addi	$7,$3,28271
  90:	00746e69 	0x746e69
  94:	736d656d 	0x736d656d
  98:	5f007465 	bgtzl	$24,1d230 <_Z7getDataPKhm+0x1d230>
  9c:	656d365a 	0x656d365a
  a0:	7970636d 	0x7970636d
  a4:	5f537650 	0x5f537650
  a8:	7270006d 	0x7270006d
  ac:	66746e69 	0x66746e69
  b0:	6e6d2f00 	0x6e6d2f00
  b4:	2f642f74 	sltiu	$4,$27,12148
  b8:	65646f63 	0x65646f63
  bc:	77682f73 	jalx	da0bdcc <_Z7getDataPKhm+0xda0bdcc>
  c0:	3130322d 	andi	$16,$9,0x322d
  c4:	74756139 	jalx	1d584e4 <_Z7getDataPKhm+0x1d584e4>
  c8:	2f6e6d75 	sltiu	$14,$27,28021
  cc:	2d67726f 	sltiu	$7,$11,29295
  d0:	2f74656e 	sltiu	$20,$27,25966
  d4:	31646f63 	andi	$4,$11,0x6f63
  d8:	70726739 	0x70726739
  dc:	68742f32 	0x68742f32
  e0:	61706e69 	0x61706e69
  e4:	6f745f64 	0x6f745f64
  e8:	72732e70 	0x72732e70
  ec:	732f7363 	0x732f7363
  f0:	315f6d69 	andi	$31,$10,0x6d69
  f4:	77656e2f 	jalx	d95b8bc <_Z7getDataPKhm+0xd95b8bc>
  f8:	63616d2f 	0x63616d2f
  fc:	656e6968 	0x656e6968
 100:	646f632d 	0x646f632d
 104:	65672d65 	0x65672d65
 108:	6172656e 	0x6172656e
 10c:	00726f74 	teq	$3,$18,0x1bd
 110:	74697277 	jalx	1a5c9dc <_Z7getDataPKhm+0x1a5c9dc>
 114:	74614465 	jalx	1851194 <_Z7getDataPKhm+0x1851194>
 118:	5a5f0061 	0x5a5f0061
 11c:	69727739 	0x69727739
 120:	61446574 	0x61446574
 124:	68506174 	0x68506174
 128:	5f00696d 	bgtzl	$24,1a6e0 <_Z7getDataPKhm+0x1a6e0>
 12c:	6572375a 	0x6572375a
 130:	73726576 	0x73726576
 134:	75006865 	jalx	401a194 <_Z7getDataPKhm+0x401a194>
 138:	6769736e 	0x6769736e
 13c:	2064656e 	addi	$4,$3,25966
 140:	72616863 	0x72616863
 144:	67697300 	0x67697300
 148:	2064656e 	addi	$4,$3,25966
 14c:	72616863 	0x72616863
 150:	6e6f6c00 	0x6e6f6c00
 154:	6f6c2067 	0x6f6c2067
 158:	7520676e 	jalx	4819db8 <_Z7getDataPKhm+0x4819db8>
 15c:	6769736e 	0x6769736e
 160:	2064656e 	addi	$4,$3,25966
 164:	00746e69 	0x746e69
 168:	6e355a5f 	0x6e355a5f
 16c:	73686f74 	0x73686f74
 170:	69750074 	0x69750074
 174:	3233746e 	andi	$19,$17,0x746e
 178:	7500745f 	jalx	401d17c <_Z7getDataPKhm+0x401d17c>
 17c:	6769736e 	0x6769736e
 180:	2064656e 	addi	$4,$3,25966
 184:	00746e69 	0x746e69
 188:	746e6975 	jalx	1b9a5d4 <_Z7getDataPKhm+0x1b9a5d4>
 18c:	745f3631 	jalx	17cd8c4 <_Z7getDataPKhm+0x17cd8c4>
 190:	375a5f00 	ori	$26,$26,0x5f00
 194:	44746567 	0x44746567
 198:	50617461 	beql	$3,$1,1d320 <_Z7getDataPKhm+0x1d320>
 19c:	006d684b 	0x6d684b
 1a0:	726f6873 	0x726f6873
 1a4:	6e752074 	0x6e752074
 1a8:	6e676973 	0x6e676973
 1ac:	69206465 	0x69206465
 1b0:	6300746e 	0x6300746e
 1b4:	00726168 	0x726168
 1b8:	20554e47 	addi	$21,$2,20039
 1bc:	312b2b43 	andi	$11,$9,0x2b43
 1c0:	2e372031 	sltiu	$23,$17,8241
 1c4:	20302e34 	addi	$16,$1,11828
 1c8:	6c656d2d 	0x6c656d2d
 1cc:	736d2d20 	0x736d2d20
 1d0:	6c676e69 	0x6c676e69
 1d4:	6c662d65 	0x6c662d65
 1d8:	2074616f 	addi	$20,$3,24943
 1dc:	67786d2d 	0x67786d2d
 1e0:	2d20746f 	sltiu	$0,$9,29807
 1e4:	2d6f6e6d 	sltiu	$15,$11,28269
 1e8:	63696261 	0x63696261
 1ec:	736c6c61 	0x736c6c61
 1f0:	686d2d20 	0x686d2d20
 1f4:	2d647261 	sltiu	$4,$11,29281
 1f8:	616f6c66 	0x616f6c66
 1fc:	6d2d2074 	0x6d2d2074
 200:	33737069 	andi	$19,$27,0x7069
 204:	6d2d2032 	0x6d2d2032
 208:	63736c6c 	0x63736c6c
 20c:	6e6d2d20 	0x6e6d2d20
 210:	786c2d6f 	0x786c2d6f
 214:	732d3163 	0x732d3163
 218:	20316378 	addi	$17,$1,25464
 21c:	6f6e6d2d 	0x6f6e6d2d
 220:	6168732d 	0x6168732d
 224:	20646572 	addi	$4,$3,25970
 228:	62616d2d 	0x62616d2d
 22c:	32333d69 	andi	$19,$17,0x3d69
 230:	20672d20 	addi	$7,$3,11552
 234:	6474732d 	0x6474732d
 238:	2b2b633d 	slti	$11,$25,25405
 23c:	2d203131 	sltiu	$0,$9,12593
 240:	6e756666 	0x6e756666
 244:	6f697463 	0x6f697463
 248:	65732d6e 	0x65732d6e
 24c:	6f697463 	0x6f697463
 250:	2d20736e 	sltiu	$0,$9,29550
 254:	74616466 	jalx	1859198 <_Z7getDataPKhm+0x1859198>
 258:	65732d61 	0x65732d61
 25c:	6f697463 	0x6f697463
 260:	2d20736e 	sltiu	$0,$9,29550
 264:	65726666 	0x65726666
 268:	61747365 	0x61747365
 26c:	6e69646e 	0x6e69646e
 270:	662d2067 	0x662d2067
 274:	622d6f6e 	0x622d6f6e
 278:	746c6975 	jalx	1b1a5d4 <_Z7getDataPKhm+0x1b1a5d4>
 27c:	2d206e69 	sltiu	$0,$9,28265
 280:	2d6f6e66 	sltiu	$15,$11,28262
 284:	00454950 	0x454950
 288:	72646461 	0x72646461
 28c:	315a5f00 	andi	$26,$10,0x5f00
 290:	43504930 	c0	0x1504930
 294:	6b636568 	0x6b636568
 298:	506d7573 	beql	$3,$13,1d868 <_Z7getDataPKhm+0x1d868>
 29c:	5a5f0068 	0x5a5f0068
 2a0:	6e696d33 	0x6e696d33
 2a4:	75006a6a 	jalx	401a9a8 <_Z7getDataPKhm+0x401a9a8>
 2a8:	696c6974 	0x696c6974
 2ac:	632e7974 	0x632e7974
 2b0:	6c007070 	0x6c007070
 2b4:	20676e6f 	addi	$7,$3,28271
 2b8:	69736e75 	0x69736e75
 2bc:	64656e67 	0x64656e67
 2c0:	746e6920 	jalx	1b9a480 <_Z7getDataPKhm+0x1b9a480>
 2c4:	345a5f00 	ori	$26,$2,0x5f00
 2c8:	636c6163 	0x636c6163
 2cc:	7200696a 	0x7200696a
 2d0:	72657665 	0x72657665
 2d4:	68006573 	0x68006573
 2d8:	6c6e6f74 	0x6c6e6f74
 2dc:	335a5f00 	andi	$26,$26,0x5f00
 2e0:	6a74756f 	0x6a74756f
 2e4:	5a5f0069 	0x5a5f0069
 2e8:	6f746835 	0x6f746835
 2ec:	0074736e 	0x74736e
 2f0:	7074756f 	0x7074756f
 2f4:	63007475 	0x63007475
 2f8:	6372735f 	0x6372735f
 2fc:	355a5f00 	ori	$26,$10,0x5f00
 300:	686f746e 	0x686f746e
 304:	63006a6c 	0x63006a6c
 308:	7473645f 	jalx	1cd917c <_Z7getDataPKhm+0x1cd917c>
 30c:	355a5f00 	ori	$26,$10,0x5f00
 310:	6e6f7468 	0x6e6f7468
 314:	49006a6c 	bc2f	1acc8 <_Z7getDataPKhm+0x1acc8>
 318:	65684350 	0x65684350
 31c:	75736b63 	jalx	5cdad8c <_Z7getDataPKhm+0x5cdad8c>
 320:	Address 0x0000000000000320 is out of bounds.


Disassembly of section .comment:

00000000 <.comment>:
   0:	43434700 	c0	0x1434700
   4:	5528203a 	bnel	$9,$8,80f0 <_Z7getDataPKhm+0x80f0>
   8:	746e7562 	jalx	1b9d588 <_Z7getDataPKhm+0x1b9d588>
   c:	2e372075 	sltiu	$23,$17,8309
  10:	2d302e34 	sltiu	$16,$9,11828
  14:	75627531 	jalx	589d4c4 <_Z7getDataPKhm+0x589d4c4>
  18:	3175746e 	andi	$21,$11,0x746e
  1c:	2e38317e 	sltiu	$24,$17,12670
  20:	312e3430 	andi	$14,$9,0x3430
  24:	2e372029 	sltiu	$23,$17,8233
  28:	00302e34 	teq	$1,$16,0xb8

Disassembly of section .eh_frame:

00000000 <.eh_frame>:
   0:	00000010 	mfhi	$0
   4:	00000000 	sll	$0,$0,0x0
   8:	00527a01 	0x527a01
   c:	011f7c01 	0x11f7c01
  10:	001d0d0b 	0x1d0d0b
  14:	00000020 	add	$0,$0,$0
  18:	00000018 	mult	$0,$0
  1c:	00000000 	sll	$0,$0,0x0
  20:	00000054 	0x54
  24:	080e4400 	j	391000 <_Z7getDataPKhm+0x391000>
  28:	44019e44 	0x44019e44
  2c:	0d781e0d 	jal	5e07834 <_Z7getDataPKhm+0x5e07834>
  30:	0ede481d 	jal	b792074 <_Z7getDataPKhm+0xb792074>
  34:	00000000 	sll	$0,$0,0x0
  38:	00000020 	add	$0,$0,$0
  3c:	0000003c 	0x3c
  40:	00000000 	sll	$0,$0,0x0
  44:	00000068 	0x68
  48:	080e4400 	j	391000 <_Z7getDataPKhm+0x391000>
  4c:	44019e44 	0x44019e44
  50:	4c021e0d 	0x4c021e0d
  54:	de481d0d 	ldc3	$8,7437($18)
  58:	0000000e 	0xe
  5c:	00000020 	add	$0,$0,$0
  60:	00000060 	0x60
  64:	00000000 	sll	$0,$0,0x0
  68:	000000f8 	0xf8
  6c:	080e4400 	j	391000 <_Z7getDataPKhm+0x391000>
  70:	44019e44 	0x44019e44
  74:	dc021e0d 	ldc3	$2,7693($0)
  78:	de481d0d 	ldc3	$8,7437($18)
  7c:	0000000e 	0xe
  80:	00000024 	and	$0,$0,$0
  84:	00000084 	0x84
  88:	00000000 	sll	$0,$0,0x0
  8c:	0000008c 	syscall	0x2
  90:	180e4400 	0x180e4400
  94:	9e019f48 	0x9e019f48
  98:	1e0d4402 	0x1e0d4402
  9c:	1d0d6802 	0x1d0d6802
  a0:	0edfde4c 	jal	b7f7930 <_Z7getDataPKhm+0xb7f7930>
  a4:	00000000 	sll	$0,$0,0x0
  a8:	00000024 	and	$0,$0,$0
  ac:	000000ac 	0xac
  b0:	00000000 	sll	$0,$0,0x0
  b4:	00000090 	0x90
  b8:	200e4400 	addi	$14,$0,17408
  bc:	9e019f48 	0x9e019f48
  c0:	1e0d4402 	0x1e0d4402
  c4:	1d0d6c02 	0x1d0d6c02
  c8:	0edfde4c 	jal	b7f7930 <_Z7getDataPKhm+0xb7f7930>
  cc:	00000000 	sll	$0,$0,0x0
  d0:	00000024 	and	$0,$0,$0
  d4:	000000d4 	0xd4
  d8:	00000000 	sll	$0,$0,0x0
  dc:	0000006c 	0x6c
  e0:	180e4400 	0x180e4400
  e4:	9e019f48 	0x9e019f48
  e8:	1e0d4402 	0x1e0d4402
  ec:	1d0d4802 	0x1d0d4802
  f0:	0edfde4c 	jal	b7f7930 <_Z7getDataPKhm+0xb7f7930>
  f4:	00000000 	sll	$0,$0,0x0
  f8:	00000024 	and	$0,$0,$0
  fc:	000000fc 	0xfc
 100:	00000000 	sll	$0,$0,0x0
 104:	000000e4 	0xe4
 108:	280e4400 	slti	$14,$0,17408
 10c:	9e019f48 	0x9e019f48
 110:	1e0d4402 	0x1e0d4402
 114:	1d0dc002 	0x1d0dc002
 118:	0edfde4c 	jal	b7f7930 <_Z7getDataPKhm+0xb7f7930>
 11c:	00000000 	sll	$0,$0,0x0
 120:	00000020 	add	$0,$0,$0
 124:	00000124 	0x124
 128:	00000000 	sll	$0,$0,0x0
 12c:	0000005c 	0x5c
 130:	080e4400 	j	391000 <_Z7getDataPKhm+0x391000>
 134:	44019e44 	0x44019e44
 138:	40021e0d 	0x40021e0d
 13c:	de481d0d 	ldc3	$8,7437($18)
 140:	0000000e 	0xe
 144:	00000020 	add	$0,$0,$0
 148:	00000148 	0x148
 14c:	00000000 	sll	$0,$0,0x0
 150:	0000005c 	0x5c
 154:	080e4400 	j	391000 <_Z7getDataPKhm+0x391000>
 158:	44019e44 	0x44019e44
 15c:	40021e0d 	0x40021e0d
 160:	de481d0d 	ldc3	$8,7437($18)
 164:	0000000e 	0xe
 168:	00000020 	add	$0,$0,$0
 16c:	0000016c 	0x16c
 170:	00000000 	sll	$0,$0,0x0
 174:	0000005c 	0x5c
 178:	080e4400 	j	391000 <_Z7getDataPKhm+0x391000>
 17c:	44019e44 	0x44019e44
 180:	40021e0d 	0x40021e0d
 184:	de481d0d 	ldc3	$8,7437($18)
 188:	0000000e 	0xe
 18c:	00000020 	add	$0,$0,$0
 190:	00000190 	0x190
 194:	00000000 	sll	$0,$0,0x0
 198:	0000005c 	0x5c
 19c:	080e4400 	j	391000 <_Z7getDataPKhm+0x391000>
 1a0:	44019e44 	0x44019e44
 1a4:	40021e0d 	0x40021e0d
 1a8:	de481d0d 	ldc3	$8,7437($18)
 1ac:	0000000e 	0xe
 1b0:	00000020 	add	$0,$0,$0
 1b4:	000001b4 	teq	$0,$0,0x6
 1b8:	00000000 	sll	$0,$0,0x0
 1bc:	0000002c 	0x2c
 1c0:	080e4400 	j	391000 <_Z7getDataPKhm+0x391000>
 1c4:	44019e44 	0x44019e44
 1c8:	0d501e0d 	jal	5407834 <_Z7getDataPKhm+0x5407834>
 1cc:	0ede481d 	jal	b792074 <_Z7getDataPKhm+0xb792074>
 1d0:	00000000 	sll	$0,$0,0x0
 1d4:	00000020 	add	$0,$0,$0
 1d8:	000001d8 	0x1d8
 1dc:	00000000 	sll	$0,$0,0x0
 1e0:	00000028 	0x28
 1e4:	080e4400 	j	391000 <_Z7getDataPKhm+0x391000>
 1e8:	44019e44 	0x44019e44
 1ec:	0d4c1e0d 	jal	5307834 <_Z7getDataPKhm+0x5307834>
 1f0:	0ede481d 	jal	b792074 <_Z7getDataPKhm+0xb792074>
 1f4:	00000000 	sll	$0,$0,0x0
 1f8:	00000020 	add	$0,$0,$0
 1fc:	000001fc 	0x1fc
 200:	00000000 	sll	$0,$0,0x0
 204:	00000074 	teq	$0,$0,0x1
 208:	100e4400 	beq	$0,$14,1120c <_Z7getDataPKhm+0x1120c>
 20c:	44019e44 	0x44019e44
 210:	58021e0d 	0x58021e0d
 214:	de481d0d 	ldc3	$8,7437($18)
 218:	0000000e 	0xe
 21c:	00000020 	add	$0,$0,$0
 220:	00000220 	0x220
 224:	00000000 	sll	$0,$0,0x0
 228:	00000084 	0x84
 22c:	100e4400 	beq	$0,$14,11230 <_Z7getDataPKhm+0x11230>
 230:	44019e44 	0x44019e44
 234:	68021e0d 	0x68021e0d
 238:	de481d0d 	ldc3	$8,7437($18)
 23c:	0000000e 	0xe
 240:	00000020 	add	$0,$0,$0
 244:	00000244 	0x244
 248:	00000000 	sll	$0,$0,0x0
 24c:	0000004c 	syscall	0x1
 250:	080e4400 	j	391000 <_Z7getDataPKhm+0x391000>
 254:	44019e44 	0x44019e44
 258:	0d701e0d 	jal	5c07834 <_Z7getDataPKhm+0x5c07834>
 25c:	0ede481d 	jal	b792074 <_Z7getDataPKhm+0xb792074>
 260:	00000000 	sll	$0,$0,0x0

Disassembly of section .gnu.attributes:

00000000 <.gnu.attributes>:
   0:	00000f41 	0xf41
   4:	756e6700 	jalx	5b99c00 <_Z7getDataPKhm+0x5b99c00>
   8:	00070100 	sll	$0,$7,0x4
   c:	02040000 	0x2040000
